
stk500boot.elf:     file format elf32-avr

Sections:
Idx Name          Size      VMA       LMA       File off  Algn
  0 .data         00000004  00800200  0003f772  00001806  2**0
                  CONTENTS, ALLOC, LOAD, DATA
  1 .text         00001772  0003e000  0003e000  00000094  2**1
                  CONTENTS, ALLOC, LOAD, READONLY, CODE
  2 .bss          0000000e  00800204  00800204  0000180a  2**0
                  ALLOC
  3 .comment      00000011  00000000  00000000  0000180a  2**0
                  CONTENTS, READONLY
  4 .note.gnu.avr.deviceinfo 00000040  00000000  00000000  0000181c  2**2
                  CONTENTS, READONLY
  5 .debug_aranges 00000048  00000000  00000000  0000185c  2**0
                  CONTENTS, READONLY, DEBUGGING
  6 .debug_info   000024c5  00000000  00000000  000018a4  2**0
                  CONTENTS, READONLY, DEBUGGING
  7 .debug_abbrev 00000395  00000000  00000000  00003d69  2**0
                  CONTENTS, READONLY, DEBUGGING
  8 .debug_line   00000fa4  00000000  00000000  000040fe  2**0
                  CONTENTS, READONLY, DEBUGGING
  9 .debug_frame  000001ac  00000000  00000000  000050a4  2**2
                  CONTENTS, READONLY, DEBUGGING
 10 .debug_str    000008db  00000000  00000000  00005250  2**0
                  CONTENTS, READONLY, DEBUGGING
 11 .debug_loc    00001aaa  00000000  00000000  00005b2b  2**0
                  CONTENTS, READONLY, DEBUGGING
 12 .debug_ranges 000000e8  00000000  00000000  000075d5  2**0
                  CONTENTS, READONLY, DEBUGGING

Disassembly of section .text:

0003e000 <__vectors>:
   3e000:	0d 94 8b f1 	jmp	0x3e316	; 0x3e316 <__ctors_end>
   3e004:	0d 94 b4 f1 	jmp	0x3e368	; 0x3e368 <__bad_interrupt>
   3e008:	0d 94 b4 f1 	jmp	0x3e368	; 0x3e368 <__bad_interrupt>
   3e00c:	0d 94 b4 f1 	jmp	0x3e368	; 0x3e368 <__bad_interrupt>
   3e010:	0d 94 b4 f1 	jmp	0x3e368	; 0x3e368 <__bad_interrupt>
   3e014:	0d 94 b4 f1 	jmp	0x3e368	; 0x3e368 <__bad_interrupt>
   3e018:	0d 94 b4 f1 	jmp	0x3e368	; 0x3e368 <__bad_interrupt>
   3e01c:	0d 94 b4 f1 	jmp	0x3e368	; 0x3e368 <__bad_interrupt>
   3e020:	0d 94 b4 f1 	jmp	0x3e368	; 0x3e368 <__bad_interrupt>
   3e024:	0d 94 b4 f1 	jmp	0x3e368	; 0x3e368 <__bad_interrupt>
   3e028:	0d 94 b4 f1 	jmp	0x3e368	; 0x3e368 <__bad_interrupt>
   3e02c:	0d 94 b4 f1 	jmp	0x3e368	; 0x3e368 <__bad_interrupt>
   3e030:	0d 94 b4 f1 	jmp	0x3e368	; 0x3e368 <__bad_interrupt>
   3e034:	0d 94 b4 f1 	jmp	0x3e368	; 0x3e368 <__bad_interrupt>
   3e038:	0d 94 b4 f1 	jmp	0x3e368	; 0x3e368 <__bad_interrupt>
   3e03c:	0d 94 b4 f1 	jmp	0x3e368	; 0x3e368 <__bad_interrupt>
   3e040:	0d 94 b4 f1 	jmp	0x3e368	; 0x3e368 <__bad_interrupt>
   3e044:	0d 94 b4 f1 	jmp	0x3e368	; 0x3e368 <__bad_interrupt>
   3e048:	0d 94 b4 f1 	jmp	0x3e368	; 0x3e368 <__bad_interrupt>
   3e04c:	0d 94 b4 f1 	jmp	0x3e368	; 0x3e368 <__bad_interrupt>
   3e050:	0d 94 b4 f1 	jmp	0x3e368	; 0x3e368 <__bad_interrupt>
   3e054:	0d 94 b4 f1 	jmp	0x3e368	; 0x3e368 <__bad_interrupt>
   3e058:	0d 94 b4 f1 	jmp	0x3e368	; 0x3e368 <__bad_interrupt>
   3e05c:	0d 94 b4 f1 	jmp	0x3e368	; 0x3e368 <__bad_interrupt>
   3e060:	0d 94 b4 f1 	jmp	0x3e368	; 0x3e368 <__bad_interrupt>
   3e064:	0d 94 b4 f1 	jmp	0x3e368	; 0x3e368 <__bad_interrupt>
   3e068:	0d 94 b4 f1 	jmp	0x3e368	; 0x3e368 <__bad_interrupt>
   3e06c:	0d 94 b4 f1 	jmp	0x3e368	; 0x3e368 <__bad_interrupt>
   3e070:	0d 94 b4 f1 	jmp	0x3e368	; 0x3e368 <__bad_interrupt>
   3e074:	0d 94 b4 f1 	jmp	0x3e368	; 0x3e368 <__bad_interrupt>
   3e078:	0d 94 b4 f1 	jmp	0x3e368	; 0x3e368 <__bad_interrupt>
   3e07c:	0d 94 b4 f1 	jmp	0x3e368	; 0x3e368 <__bad_interrupt>
   3e080:	0d 94 b4 f1 	jmp	0x3e368	; 0x3e368 <__bad_interrupt>
   3e084:	0d 94 b4 f1 	jmp	0x3e368	; 0x3e368 <__bad_interrupt>
   3e088:	0d 94 b4 f1 	jmp	0x3e368	; 0x3e368 <__bad_interrupt>
   3e08c:	0d 94 b4 f1 	jmp	0x3e368	; 0x3e368 <__bad_interrupt>
   3e090:	0d 94 b4 f1 	jmp	0x3e368	; 0x3e368 <__bad_interrupt>
   3e094:	0d 94 b4 f1 	jmp	0x3e368	; 0x3e368 <__bad_interrupt>
   3e098:	0d 94 b4 f1 	jmp	0x3e368	; 0x3e368 <__bad_interrupt>
   3e09c:	0d 94 b4 f1 	jmp	0x3e368	; 0x3e368 <__bad_interrupt>
   3e0a0:	0d 94 b4 f1 	jmp	0x3e368	; 0x3e368 <__bad_interrupt>
   3e0a4:	0d 94 b4 f1 	jmp	0x3e368	; 0x3e368 <__bad_interrupt>
   3e0a8:	0d 94 b4 f1 	jmp	0x3e368	; 0x3e368 <__bad_interrupt>
   3e0ac:	0d 94 b4 f1 	jmp	0x3e368	; 0x3e368 <__bad_interrupt>
   3e0b0:	0d 94 b4 f1 	jmp	0x3e368	; 0x3e368 <__bad_interrupt>
   3e0b4:	0d 94 b4 f1 	jmp	0x3e368	; 0x3e368 <__bad_interrupt>
   3e0b8:	0d 94 b4 f1 	jmp	0x3e368	; 0x3e368 <__bad_interrupt>
   3e0bc:	0d 94 b4 f1 	jmp	0x3e368	; 0x3e368 <__bad_interrupt>
   3e0c0:	0d 94 b4 f1 	jmp	0x3e368	; 0x3e368 <__bad_interrupt>
   3e0c4:	0d 94 b4 f1 	jmp	0x3e368	; 0x3e368 <__bad_interrupt>
   3e0c8:	0d 94 b4 f1 	jmp	0x3e368	; 0x3e368 <__bad_interrupt>
   3e0cc:	0d 94 b4 f1 	jmp	0x3e368	; 0x3e368 <__bad_interrupt>
   3e0d0:	0d 94 b4 f1 	jmp	0x3e368	; 0x3e368 <__bad_interrupt>
   3e0d4:	0d 94 b4 f1 	jmp	0x3e368	; 0x3e368 <__bad_interrupt>
   3e0d8:	0d 94 b4 f1 	jmp	0x3e368	; 0x3e368 <__bad_interrupt>
   3e0dc:	0d 94 b4 f1 	jmp	0x3e368	; 0x3e368 <__bad_interrupt>
   3e0e0:	0d 94 b4 f1 	jmp	0x3e368	; 0x3e368 <__bad_interrupt>

0003e0e4 <__trampolines_end>:
   3e0e4:	2a 00       	.word	0x002a	; ????

0003e0e6 <gTextMsg_HELP_MSG_Y>:
   3e0e6:	59 3d 50 6f 72 74 20 62 6c 69 6e 6b 00              Y=Port blink.

0003e0f3 <gTextMsg_HELP_MSG_V>:
   3e0f3:	56 3d 73 68 6f 77 20 69 6e 74 65 72 72 75 70 74     V=show interrupt
   3e103:	20 56 65 63 74 6f 72 73 00                           Vectors.

0003e10c <gTextMsg_HELP_MSG_R>:
   3e10c:	52 3d 44 75 6d 70 20 52 41 4d 00                    R=Dump RAM.

0003e117 <gTextMsg_HELP_MSG_Q>:
   3e117:	51 3d 51 75 69 74 00                                Q=Quit.

0003e11e <gTextMsg_HELP_MSG_L>:
   3e11e:	4c 3d 4c 69 73 74 20 49 2f 4f 20 50 6f 72 74 73     L=List I/O Ports
	...

0003e12f <gTextMsg_HELP_MSG_H>:
   3e12f:	48 3d 48 65 6c 70 00                                H=Help.

0003e136 <gTextMsg_HELP_MSG_F>:
   3e136:	46 3d 44 75 6d 70 20 46 4c 41 53 48 00              F=Dump FLASH.

0003e143 <gTextMsg_HELP_MSG_E>:
   3e143:	45 3d 44 75 6d 70 20 45 45 50 52 4f 4d 00           E=Dump EEPROM.

0003e151 <gTextMsg_HELP_MSG_B>:
   3e151:	42 3d 42 6c 69 6e 6b 20 4c 45 44 00                 B=Blink LED.

0003e15d <gTextMsg_HELP_MSG_AT>:
   3e15d:	40 3d 45 45 50 52 4f 4d 20 74 65 73 74 00           @=EEPROM test.

0003e16b <gTextMsg_HELP_MSG_QM>:
   3e16b:	3f 3d 43 50 55 20 73 74 61 74 73 00                 ?=CPU stats.

0003e177 <gTextMsg_HELP_MSG_0>:
   3e177:	30 3d 5a 65 72 6f 20 61 64 64 72 00                 0=Zero addr.

0003e183 <gTextMsg_PORT>:
   3e183:	50 4f 52 54 00                                      PORT.

0003e188 <gTextMsg_EEPROMerrorCnt>:
   3e188:	45 45 20 65 72 72 20 63 6e 74 3d 00                 EE err cnt=.

0003e194 <gTextMsg_ReadingEEprom>:
   3e194:	52 65 61 64 69 6e 67 20 45 45 00                    Reading EE.

0003e19f <gTextMsg_WriteToEEprom>:
   3e19f:	57 72 69 74 74 69 6e 67 20 45 45 00                 Writting EE.

0003e1ab <gTextMsg_SPACE>:
   3e1ab:	20 00                                                .

0003e1ad <gTextMsg_MustBeLetter>:
   3e1ad:	4d 75 73 74 20 62 65 20 61 20 6c 65 74 74 65 72     Must be a letter
	...

0003e1be <gTextMsg_PortNotSupported>:
   3e1be:	50 6f 72 74 20 6e 6f 74 20 73 75 70 70 6f 72 74     Port not support
   3e1ce:	65 64 00                                            ed.

0003e1d1 <gTextMsg_WHAT_PORT>:
   3e1d1:	57 68 61 74 20 70 6f 72 74 3a 00                    What port:.

0003e1dc <gTextMsg_jmp>:
   3e1dc:	6a 6d 70 20 00                                      jmp .

0003e1e1 <gTextMsg_rjmp>:
   3e1e1:	72 6a 6d 70 20 20 00                                rjmp  .

0003e1e8 <gTextMsg_noVector>:
   3e1e8:	6e 6f 20 76 65 63 74 6f 72 00                       no vector.

0003e1f2 <gTextMsg_VECTOR_HEADER>:
   3e1f2:	56 23 20 20 20 41 44 44 52 20 20 20 6f 70 20 63     V#   ADDR   op c
   3e202:	6f 64 65 20 20 20 20 20 69 6e 73 74 72 75 63 74     ode     instruct
   3e212:	69 6f 6e 20 61 64 64 72 20 20 20 49 6e 74 65 72     ion addr   Inter
   3e222:	72 75 70 74 00                                      rupt.

0003e227 <gTextMsg_GCC_VERSION_STR>:
   3e227:	34 2e 39 2e 32 00                                   4.9.2.

0003e22d <gTextMsg_AVR_LIBC_VER_STR>:
   3e22d:	31 2e 38 2e 30 73 76 6e 00                          1.8.0svn.

0003e236 <gTextMsg_GCC_DATE_STR>:
   3e236:	4a 75 6e 20 20 35 20 32 30 31 37 00                 Jun  5 2017.

0003e242 <gTextMsg_FUSE_BYTE_LOCK>:
   3e242:	4c 6f 63 6b 20 66 75 73 65 20 20 20 3d 20 00        Lock fuse   = .

0003e251 <gTextMsg_FUSE_BYTE_EXT>:
   3e251:	45 78 74 20 66 75 73 65 20 20 20 20 3d 20 00        Ext fuse    = .

0003e260 <gTextMsg_FUSE_BYTE_HIGH>:
   3e260:	48 69 67 68 20 66 75 73 65 20 20 20 3d 20 00        High fuse   = .

0003e26f <gTextMsg_FUSE_BYTE_LOW>:
   3e26f:	4c 6f 77 20 66 75 73 65 20 20 20 20 3d 20 00        Low fuse    = .

0003e27e <gTextMsg_CPU_SIGNATURE>:
   3e27e:	43 50 55 20 49 44 20 20 20 20 20 20 3d 20 00        CPU ID      = .

0003e28d <gTextMsg_GCC_VERSION>:
   3e28d:	47 43 43 20 56 65 72 73 69 6f 6e 20 3d 20 00        GCC Version = .

0003e29c <gTextMsg_AVR_LIBC>:
   3e29c:	41 56 52 20 4c 69 62 43 20 56 65 72 3d 20 00        AVR LibC Ver= .

0003e2ab <gTextMsg_AVR_ARCH>:
   3e2ab:	5f 5f 41 56 52 5f 41 52 43 48 5f 5f 3d 20 00        __AVR_ARCH__= .

0003e2ba <gTextMsg_CPU_Type>:
   3e2ba:	43 50 55 20 54 79 70 65 20 20 20 20 3d 20 00        CPU Type    = .

0003e2c9 <gTextMsg_COMPILED_ON>:
   3e2c9:	43 6f 6d 70 69 6c 65 64 20 6f 6e 20 3d 20 00        Compiled on = .

0003e2d8 <gTextMsg_HUH>:
   3e2d8:	48 75 68 3f 00                                      Huh?.

0003e2dd <gTextMsg_Prompt>:
   3e2dd:	42 6f 6f 74 6c 6f 61 64 65 72 3e 00                 Bootloader>.

0003e2e9 <gTextMsg_Explorer>:
   3e2e9:	41 72 64 75 69 6e 6f 20 65 78 70 6c 6f 72 65 72     Arduino explorer
   3e2f9:	20 73 74 6b 35 30 30 56 32 20 62 79 20 4d 4c 53      stk500V2 by MLS
	...

0003e30a <gTextMsg_CPU_Name>:
   3e30a:	41 54 6d 65 67 61 32 35 36 30 00 00                 ATmega2560..

0003e316 <__ctors_end>:
   3e316:	11 24       	eor	r1, r1
   3e318:	1f be       	out	0x3f, r1	; 63
   3e31a:	cf ef       	ldi	r28, 0xFF	; 255
   3e31c:	d1 e2       	ldi	r29, 0x21	; 33
   3e31e:	de bf       	out	0x3e, r29	; 62
   3e320:	cd bf       	out	0x3d, r28	; 61
   3e322:	01 e0       	ldi	r16, 0x01	; 1
   3e324:	0c bf       	out	0x3c, r16	; 60

0003e326 <__do_copy_data>:
   3e326:	12 e0       	ldi	r17, 0x02	; 2
   3e328:	a0 e0       	ldi	r26, 0x00	; 0
   3e32a:	b2 e0       	ldi	r27, 0x02	; 2
   3e32c:	e2 e7       	ldi	r30, 0x72	; 114
   3e32e:	f7 ef       	ldi	r31, 0xF7	; 247
   3e330:	03 e0       	ldi	r16, 0x03	; 3
   3e332:	0b bf       	out	0x3b, r16	; 59
   3e334:	02 c0       	rjmp	.+4      	; 0x3e33a <__do_copy_data+0x14>
   3e336:	07 90       	elpm	r0, Z+
   3e338:	0d 92       	st	X+, r0
   3e33a:	a4 30       	cpi	r26, 0x04	; 4
   3e33c:	b1 07       	cpc	r27, r17
   3e33e:	d9 f7       	brne	.-10     	; 0x3e336 <__do_copy_data+0x10>

0003e340 <__do_clear_bss>:
   3e340:	22 e0       	ldi	r18, 0x02	; 2
   3e342:	a4 e0       	ldi	r26, 0x04	; 4
   3e344:	b2 e0       	ldi	r27, 0x02	; 2
   3e346:	01 c0       	rjmp	.+2      	; 0x3e34a <.do_clear_bss_start>

0003e348 <.do_clear_bss_loop>:
   3e348:	1d 92       	st	X+, r1

0003e34a <.do_clear_bss_start>:
   3e34a:	a2 31       	cpi	r26, 0x12	; 18
   3e34c:	b2 07       	cpc	r27, r18
   3e34e:	e1 f7       	brne	.-8      	; 0x3e348 <.do_clear_bss_loop>
   3e350:	0f 94 ed f2 	call	0x3e5da	; 0x3e5da <main>
   3e354:	0d 94 b7 fb 	jmp	0x3f76e	; 0x3f76e <_exit>

0003e358 <__jumpMain>:

	asm volatile ( ".set __stack, %0" :: "i" (RAMEND) );

//*	set stack pointer to top of RAM

	asm volatile ( "ldi	16, %0" :: "i" (RAMEND >> 8) );
   3e358:	01 e2       	ldi	r16, 0x21	; 33
	asm volatile ( "out %0,16" :: "i" (AVR_STACK_POINTER_HI_ADDR) );
   3e35a:	0e bf       	out	0x3e, r16	; 62

	asm volatile ( "ldi	16, %0" :: "i" (RAMEND & 0x0ff) );
   3e35c:	0f ef       	ldi	r16, 0xFF	; 255
	asm volatile ( "out %0,16" :: "i" (AVR_STACK_POINTER_LO_ADDR) );
   3e35e:	0d bf       	out	0x3d, r16	; 61

	asm volatile ( "clr __zero_reg__" );									// GCC depends on register r1 set to 0
   3e360:	11 24       	eor	r1, r1
	asm volatile ( "out %0, __zero_reg__" :: "I" (_SFR_IO_ADDR(SREG)) );	// set SREG to 0
   3e362:	1f be       	out	0x3f, r1	; 63
	asm volatile ( "jmp main");												// jump to main()
   3e364:	0d 94 ed f2 	jmp	0x3e5da	; 0x3e5da <main>

0003e368 <__bad_interrupt>:
   3e368:	0d 94 00 f0 	jmp	0x3e000	; 0x3e000 <__vectors>

0003e36c <sendchar>:
/*
 * send single byte to USART, wait until transmission is completed
 */
static void sendchar(char c)
{
	UART_DATA_REG	=	c;										// prepare transmission
   3e36c:	80 93 c6 00 	sts	0x00C6, r24	; 0x8000c6 <__TEXT_REGION_LENGTH__+0x7000c6>
	while (!(UART_STATUS_REG & (1 << UART_TRANSMIT_COMPLETE)));	// wait until byte sent
   3e370:	80 91 c0 00 	lds	r24, 0x00C0	; 0x8000c0 <__TEXT_REGION_LENGTH__+0x7000c0>
   3e374:	86 ff       	sbrs	r24, 6
   3e376:	fc cf       	rjmp	.-8      	; 0x3e370 <sendchar+0x4>
	UART_STATUS_REG |= (1 << UART_TRANSMIT_COMPLETE);			// delete TXCflag
   3e378:	80 91 c0 00 	lds	r24, 0x00C0	; 0x8000c0 <__TEXT_REGION_LENGTH__+0x7000c0>
   3e37c:	80 64       	ori	r24, 0x40	; 64
   3e37e:	80 93 c0 00 	sts	0x00C0, r24	; 0x8000c0 <__TEXT_REGION_LENGTH__+0x7000c0>
   3e382:	08 95       	ret

0003e384 <delay_ms>:

//*****************************************************************************
void delay_ms(unsigned int timedelay)
{
	unsigned int i;
	for (i=0;i<timedelay;i++)
   3e384:	20 e0       	ldi	r18, 0x00	; 0
   3e386:	30 e0       	ldi	r19, 0x00	; 0
   3e388:	28 17       	cp	r18, r24
   3e38a:	39 07       	cpc	r19, r25
   3e38c:	49 f0       	breq	.+18     	; 0x3e3a0 <delay_ms+0x1c>
	#else
		//round up by default
		__ticks_dc = (uint32_t)(ceil(fabs(__tmp)));
	#endif

	__builtin_avr_delay_cycles(__ticks_dc);
   3e38e:	ef ec       	ldi	r30, 0xCF	; 207
   3e390:	f7 e0       	ldi	r31, 0x07	; 7
   3e392:	31 97       	sbiw	r30, 0x01	; 1
   3e394:	f1 f7       	brne	.-4      	; 0x3e392 <delay_ms+0xe>
   3e396:	00 c0       	rjmp	.+0      	; 0x3e398 <delay_ms+0x14>
   3e398:	00 00       	nop
   3e39a:	2f 5f       	subi	r18, 0xFF	; 255
   3e39c:	3f 4f       	sbci	r19, 0xFF	; 255
   3e39e:	f4 cf       	rjmp	.-24     	; 0x3e388 <delay_ms+0x4>
	{
		_delay_ms(0.5);
	}
}
   3e3a0:	08 95       	ret

0003e3a2 <PrintFromPROGMEM>:
	const char	gTextMsg_END[]				PROGMEM	=	"*";


//************************************************************************
void	PrintFromPROGMEM(const void *dataPtr, unsigned char offset)
{
   3e3a2:	cf 93       	push	r28
   3e3a4:	df 93       	push	r29
char	theChar;

	dataPtr		+=	offset;
   3e3a6:	ec 01       	movw	r28, r24
   3e3a8:	c6 0f       	add	r28, r22
   3e3aa:	d1 1d       	adc	r29, r1

	do {
	#if (FLASHEND > 0x10000)
		theChar	=	pgm_read_byte_far((uint16_t)dataPtr++);
   3e3ac:	ae 01       	movw	r20, r28
   3e3ae:	60 e0       	ldi	r22, 0x00	; 0
   3e3b0:	70 e0       	ldi	r23, 0x00	; 0
   3e3b2:	6b bf       	out	0x3b, r22	; 59
   3e3b4:	fa 01       	movw	r30, r20
   3e3b6:	87 91       	elpm	r24, Z+
	#else
		theChar	=	pgm_read_byte_near((uint16_t)dataPtr++);
	#endif
		if (theChar != 0)
   3e3b8:	88 23       	and	r24, r24
   3e3ba:	21 f0       	breq	.+8      	; 0x3e3c4 <PrintFromPROGMEM+0x22>

	dataPtr		+=	offset;

	do {
	#if (FLASHEND > 0x10000)
		theChar	=	pgm_read_byte_far((uint16_t)dataPtr++);
   3e3bc:	21 96       	adiw	r28, 0x01	; 1
	#else
		theChar	=	pgm_read_byte_near((uint16_t)dataPtr++);
	#endif
		if (theChar != 0)
		{
			sendchar(theChar);
   3e3be:	0f 94 b6 f1 	call	0x3e36c	; 0x3e36c <sendchar>
   3e3c2:	f4 cf       	rjmp	.-24     	; 0x3e3ac <PrintFromPROGMEM+0xa>
		}
	} while (theChar != 0);
}
   3e3c4:	df 91       	pop	r29
   3e3c6:	cf 91       	pop	r28
   3e3c8:	08 95       	ret

0003e3ca <PrintNewLine>:

//************************************************************************
void	PrintNewLine(void)
{
	sendchar(0x0d);
   3e3ca:	8d e0       	ldi	r24, 0x0D	; 13
   3e3cc:	0f 94 b6 f1 	call	0x3e36c	; 0x3e36c <sendchar>
	sendchar(0x0a);
   3e3d0:	8a e0       	ldi	r24, 0x0A	; 10
   3e3d2:	0d 94 b6 f1 	jmp	0x3e36c	; 0x3e36c <sendchar>

0003e3d6 <PrintFromPROGMEMln>:


//************************************************************************
void	PrintFromPROGMEMln(const void *dataPtr, unsigned char offset)
{
	PrintFromPROGMEM(dataPtr, offset);
   3e3d6:	0f 94 d1 f1 	call	0x3e3a2	; 0x3e3a2 <PrintFromPROGMEM>

	PrintNewLine();
   3e3da:	0d 94 e5 f1 	jmp	0x3e3ca	; 0x3e3ca <PrintNewLine>

0003e3de <PrintString>:
}


//************************************************************************
void	PrintString(char *textString)
{
   3e3de:	cf 93       	push	r28
   3e3e0:	df 93       	push	r29
   3e3e2:	ec 01       	movw	r28, r24

	theChar		=	1;
	ii			=	0;
	while (theChar != 0)
	{
		theChar	=	textString[ii];
   3e3e4:	89 91       	ld	r24, Y+
		if (theChar != 0)
   3e3e6:	88 23       	and	r24, r24
   3e3e8:	19 f0       	breq	.+6      	; 0x3e3f0 <PrintString+0x12>
		{
			sendchar(theChar);
   3e3ea:	0f 94 b6 f1 	call	0x3e36c	; 0x3e36c <sendchar>
   3e3ee:	fa cf       	rjmp	.-12     	; 0x3e3e4 <PrintString+0x6>
		}
		ii++;
	}
}
   3e3f0:	df 91       	pop	r29
   3e3f2:	cf 91       	pop	r28
   3e3f4:	08 95       	ret

0003e3f6 <PrintHexByte>:

//************************************************************************
void	PrintHexByte(unsigned char theByte)
{
   3e3f6:	cf 93       	push	r28
   3e3f8:	c8 2f       	mov	r28, r24
char	theChar;

	theChar	=	0x30 + ((theByte >> 4) & 0x0f);
   3e3fa:	98 2f       	mov	r25, r24
   3e3fc:	92 95       	swap	r25
   3e3fe:	9f 70       	andi	r25, 0x0F	; 15
   3e400:	80 e3       	ldi	r24, 0x30	; 48
   3e402:	89 0f       	add	r24, r25
	if (theChar > 0x39)
   3e404:	8a 33       	cpi	r24, 0x3A	; 58
   3e406:	10 f0       	brcs	.+4      	; 0x3e40c <PrintHexByte+0x16>
	{
		theChar	+=	7;
   3e408:	87 e3       	ldi	r24, 0x37	; 55
   3e40a:	89 0f       	add	r24, r25
	}
	sendchar(theChar );
   3e40c:	0f 94 b6 f1 	call	0x3e36c	; 0x3e36c <sendchar>

	theChar	=	0x30 + (theByte & 0x0f);
   3e410:	cf 70       	andi	r28, 0x0F	; 15
   3e412:	80 e3       	ldi	r24, 0x30	; 48
   3e414:	8c 0f       	add	r24, r28
	if (theChar > 0x39)
   3e416:	8a 33       	cpi	r24, 0x3A	; 58
   3e418:	10 f0       	brcs	.+4      	; 0x3e41e <PrintHexByte+0x28>
	{
		theChar	+=	7;
   3e41a:	87 e3       	ldi	r24, 0x37	; 55
   3e41c:	8c 0f       	add	r24, r28
	}
	sendchar(theChar );
}
   3e41e:	cf 91       	pop	r28
	theChar	=	0x30 + (theByte & 0x0f);
	if (theChar > 0x39)
	{
		theChar	+=	7;
	}
	sendchar(theChar );
   3e420:	0d 94 b6 f1 	jmp	0x3e36c	; 0x3e36c <sendchar>

0003e424 <PrintDecInt>:
}

//************************************************************************
void	PrintDecInt(int theNumber, int digitCnt)
{
   3e424:	0f 93       	push	r16
   3e426:	1f 93       	push	r17
   3e428:	cf 93       	push	r28
   3e42a:	df 93       	push	r29
   3e42c:	ec 01       	movw	r28, r24
   3e42e:	8b 01       	movw	r16, r22
int	theChar;
int	myNumber;

	myNumber	=	theNumber;

	if ((myNumber > 100) || (digitCnt >= 3))
   3e430:	85 36       	cpi	r24, 0x65	; 101
   3e432:	91 05       	cpc	r25, r1
   3e434:	1c f4       	brge	.+6      	; 0x3e43c <PrintDecInt+0x18>
   3e436:	63 30       	cpi	r22, 0x03	; 3
   3e438:	71 05       	cpc	r23, r1
   3e43a:	4c f0       	brlt	.+18     	; 0x3e44e <PrintDecInt+0x2a>
	{
		theChar		=	0x30 + myNumber / 100;
   3e43c:	ce 01       	movw	r24, r28
   3e43e:	64 e6       	ldi	r22, 0x64	; 100
   3e440:	70 e0       	ldi	r23, 0x00	; 0
   3e442:	0f 94 57 fb 	call	0x3f6ae	; 0x3f6ae <__divmodhi4>
		sendchar(theChar );
   3e446:	80 e3       	ldi	r24, 0x30	; 48
   3e448:	86 0f       	add	r24, r22
   3e44a:	0f 94 b6 f1 	call	0x3e36c	; 0x3e36c <sendchar>
	}

	if ((myNumber > 10) || (digitCnt >= 2))
   3e44e:	cb 30       	cpi	r28, 0x0B	; 11
   3e450:	d1 05       	cpc	r29, r1
   3e452:	1c f4       	brge	.+6      	; 0x3e45a <PrintDecInt+0x36>
   3e454:	02 30       	cpi	r16, 0x02	; 2
   3e456:	11 05       	cpc	r17, r1
   3e458:	6c f0       	brlt	.+26     	; 0x3e474 <PrintDecInt+0x50>
	{
		theChar	=	0x30  + ((myNumber % 100) / 10 );
   3e45a:	ce 01       	movw	r24, r28
   3e45c:	64 e6       	ldi	r22, 0x64	; 100
   3e45e:	70 e0       	ldi	r23, 0x00	; 0
   3e460:	0f 94 57 fb 	call	0x3f6ae	; 0x3f6ae <__divmodhi4>
   3e464:	6a e0       	ldi	r22, 0x0A	; 10
   3e466:	70 e0       	ldi	r23, 0x00	; 0
   3e468:	0f 94 57 fb 	call	0x3f6ae	; 0x3f6ae <__divmodhi4>
		sendchar(theChar );
   3e46c:	80 e3       	ldi	r24, 0x30	; 48
   3e46e:	86 0f       	add	r24, r22
   3e470:	0f 94 b6 f1 	call	0x3e36c	; 0x3e36c <sendchar>
	}
	theChar	=	0x30 + (myNumber % 10);
   3e474:	ce 01       	movw	r24, r28
   3e476:	6a e0       	ldi	r22, 0x0A	; 10
   3e478:	70 e0       	ldi	r23, 0x00	; 0
   3e47a:	0f 94 57 fb 	call	0x3f6ae	; 0x3f6ae <__divmodhi4>
	sendchar(theChar );
   3e47e:	80 5d       	subi	r24, 0xD0	; 208
}
   3e480:	df 91       	pop	r29
   3e482:	cf 91       	pop	r28
   3e484:	1f 91       	pop	r17
   3e486:	0f 91       	pop	r16
	{
		theChar	=	0x30  + ((myNumber % 100) / 10 );
		sendchar(theChar );
	}
	theChar	=	0x30 + (myNumber % 10);
	sendchar(theChar );
   3e488:	0d 94 b6 f1 	jmp	0x3e36c	; 0x3e36c <sendchar>

0003e48c <recchar>:
/*
 * Read single byte from USART, block if no data available
 */
static unsigned char recchar(void)
{
	while (!(UART_STATUS_REG & (1 << UART_RECEIVE_COMPLETE)))
   3e48c:	80 91 c0 00 	lds	r24, 0x00C0	; 0x8000c0 <__TEXT_REGION_LENGTH__+0x7000c0>
   3e490:	87 ff       	sbrs	r24, 7
   3e492:	fc cf       	rjmp	.-8      	; 0x3e48c <recchar>
	{
		// wait for data
	}
	return UART_DATA_REG;
   3e494:	80 91 c6 00 	lds	r24, 0x00C6	; 0x8000c6 <__TEXT_REGION_LENGTH__+0x7000c6>
}
   3e498:	08 95       	ret

0003e49a <PrintAvailablePort>:
	}
}

//************************************************************************
static void	PrintAvailablePort(char thePortLetter)
{
   3e49a:	cf 93       	push	r28
   3e49c:	c8 2f       	mov	r28, r24
	PrintFromPROGMEM(gTextMsg_PORT, 0);
   3e49e:	60 e0       	ldi	r22, 0x00	; 0
   3e4a0:	83 e8       	ldi	r24, 0x83	; 131
   3e4a2:	91 ee       	ldi	r25, 0xE1	; 225
   3e4a4:	0f 94 d1 f1 	call	0x3e3a2	; 0x3e3a2 <PrintFromPROGMEM>
	sendchar(thePortLetter);
   3e4a8:	8c 2f       	mov	r24, r28
   3e4aa:	0f 94 b6 f1 	call	0x3e36c	; 0x3e36c <sendchar>
	PrintNewLine();
}
   3e4ae:	cf 91       	pop	r28
//************************************************************************
static void	PrintAvailablePort(char thePortLetter)
{
	PrintFromPROGMEM(gTextMsg_PORT, 0);
	sendchar(thePortLetter);
	PrintNewLine();
   3e4b0:	0d 94 e5 f1 	jmp	0x3e3ca	; 0x3e3ca <PrintNewLine>

0003e4b4 <DumpHex.constprop.0>:
	kDUMP_EEPROM,
	kDUMP_RAM
};

//************************************************************************
static void	DumpHex(unsigned char dumpWhat, unsigned long startAddress, unsigned char numRows)
   3e4b4:	2f 92       	push	r2
   3e4b6:	3f 92       	push	r3
   3e4b8:	4f 92       	push	r4
   3e4ba:	5f 92       	push	r5
   3e4bc:	6f 92       	push	r6
   3e4be:	7f 92       	push	r7
   3e4c0:	8f 92       	push	r8
   3e4c2:	9f 92       	push	r9
   3e4c4:	af 92       	push	r10
   3e4c6:	bf 92       	push	r11
   3e4c8:	cf 92       	push	r12
   3e4ca:	df 92       	push	r13
   3e4cc:	ef 92       	push	r14
   3e4ce:	ff 92       	push	r15
   3e4d0:	0f 93       	push	r16
   3e4d2:	1f 93       	push	r17
   3e4d4:	cf 93       	push	r28
   3e4d6:	df 93       	push	r29
   3e4d8:	cd b7       	in	r28, 0x3d	; 61
   3e4da:	de b7       	in	r29, 0x3e	; 62
   3e4dc:	63 97       	sbiw	r28, 0x13	; 19
   3e4de:	0f b6       	in	r0, 0x3f	; 63
   3e4e0:	f8 94       	cli
   3e4e2:	de bf       	out	0x3e, r29	; 62
   3e4e4:	0f be       	out	0x3f, r0	; 63
   3e4e6:	cd bf       	out	0x3d, r28	; 61
   3e4e8:	8b 8b       	std	Y+19, r24	; 0x13
   3e4ea:	6a 01       	movw	r12, r20
   3e4ec:	7b 01       	movw	r14, r22
   3e4ee:	00 e1       	ldi	r16, 0x10	; 16
char			asciiDump[18];
unsigned char	*ramPtr;


	ramPtr				=	0;
	theValue			=	0;
   3e4f0:	10 e0       	ldi	r17, 0x00	; 0
   3e4f2:	ce 01       	movw	r24, r28
   3e4f4:	01 96       	adiw	r24, 0x01	; 1
   3e4f6:	4c 01       	movw	r8, r24
			{
				asciiDump[ii % 16]	=	theValue;
			}
			else
			{
				asciiDump[ii % 16]	=	'.';
   3e4f8:	8e e2       	ldi	r24, 0x2E	; 46
   3e4fa:	38 2e       	mov	r3, r24
   3e4fc:	90 e1       	ldi	r25, 0x10	; 16
   3e4fe:	29 2e       	mov	r2, r25
   3e500:	28 0c       	add	r2, r8
	ramPtr				=	0;
	theValue			=	0;
	myAddressPointer	=	startAddress;
	while (numRows > 0)
	{
		if (myAddressPointer > 0x10000)
   3e502:	91 e0       	ldi	r25, 0x01	; 1
   3e504:	c9 16       	cp	r12, r25
   3e506:	d1 04       	cpc	r13, r1
   3e508:	e9 06       	cpc	r14, r25
   3e50a:	f1 04       	cpc	r15, r1
   3e50c:	18 f0       	brcs	.+6      	; 0x3e514 <DumpHex.constprop.0+0x60>
		{
			PrintHexByte((myAddressPointer >> 16) & 0x00ff);
   3e50e:	8e 2d       	mov	r24, r14
   3e510:	0f 94 fb f1 	call	0x3e3f6	; 0x3e3f6 <PrintHexByte>
		}
		PrintHexByte((myAddressPointer >> 8) & 0x00ff);
   3e514:	8d 2d       	mov	r24, r13
   3e516:	0f 94 fb f1 	call	0x3e3f6	; 0x3e3f6 <PrintHexByte>
		PrintHexByte(myAddressPointer & 0x00ff);
   3e51a:	8c 2d       	mov	r24, r12
   3e51c:	0f 94 fb f1 	call	0x3e3f6	; 0x3e3f6 <PrintHexByte>
		sendchar(0x20);
   3e520:	80 e2       	ldi	r24, 0x20	; 32
   3e522:	0f 94 b6 f1 	call	0x3e36c	; 0x3e36c <sendchar>
		sendchar('-');
   3e526:	8d e2       	ldi	r24, 0x2D	; 45
   3e528:	0f 94 b6 f1 	call	0x3e36c	; 0x3e36c <sendchar>
		sendchar(0x20);
   3e52c:	80 e2       	ldi	r24, 0x20	; 32
   3e52e:	0f 94 b6 f1 	call	0x3e36c	; 0x3e36c <sendchar>

		asciiDump[0]		=	0;
   3e532:	19 82       	std	Y+1, r1	; 0x01
   3e534:	54 01       	movw	r10, r8
   3e536:	26 01       	movw	r4, r12
   3e538:	37 01       	movw	r6, r14
		for (ii=0; ii<16; ii++)
		{
			switch(dumpWhat)
   3e53a:	eb 89       	ldd	r30, Y+19	; 0x13
   3e53c:	e1 30       	cpi	r30, 0x01	; 1
   3e53e:	51 f0       	breq	.+20     	; 0x3e554 <DumpHex.constprop.0+0xa0>
   3e540:	28 f0       	brcs	.+10     	; 0x3e54c <DumpHex.constprop.0+0x98>
   3e542:	e2 30       	cpi	r30, 0x02	; 2
   3e544:	59 f4       	brne	.+22     	; 0x3e55c <DumpHex.constprop.0+0xa8>
				case kDUMP_EEPROM:
					theValue	=	eeprom_read_byte((uint8_t *)(uint16_t)myAddressPointer);
					break;

				case kDUMP_RAM:
					theValue	=	ramPtr[myAddressPointer];
   3e546:	f2 01       	movw	r30, r4
   3e548:	10 81       	ld	r17, Z
   3e54a:	08 c0       	rjmp	.+16     	; 0x3e55c <DumpHex.constprop.0+0xa8>
		{
			switch(dumpWhat)
			{
				case kDUMP_FLASH:
				#if (FLASHEND > 0x10000)
					theValue	=	pgm_read_byte_far(myAddressPointer);
   3e54c:	6b be       	out	0x3b, r6	; 59
   3e54e:	f2 01       	movw	r30, r4
   3e550:	17 91       	elpm	r17, Z+
   3e552:	04 c0       	rjmp	.+8      	; 0x3e55c <DumpHex.constprop.0+0xa8>
					theValue	=	pgm_read_byte_near(myAddressPointer);
				#endif
					break;

				case kDUMP_EEPROM:
					theValue	=	eeprom_read_byte((uint8_t *)(uint16_t)myAddressPointer);
   3e554:	c2 01       	movw	r24, r4
   3e556:	0f 94 a1 fb 	call	0x3f742	; 0x3f742 <eeprom_read_byte>
   3e55a:	18 2f       	mov	r17, r24
				case kDUMP_RAM:
					theValue	=	ramPtr[myAddressPointer];
					break;

			}
			PrintHexByte(theValue);
   3e55c:	81 2f       	mov	r24, r17
   3e55e:	0f 94 fb f1 	call	0x3e3f6	; 0x3e3f6 <PrintHexByte>
			sendchar(0x20);
   3e562:	80 e2       	ldi	r24, 0x20	; 32
   3e564:	0f 94 b6 f1 	call	0x3e36c	; 0x3e36c <sendchar>
			if ((theValue >= 0x20) && (theValue < 0x7f))
   3e568:	80 ee       	ldi	r24, 0xE0	; 224
   3e56a:	81 0f       	add	r24, r17
			{
				asciiDump[ii % 16]	=	theValue;
   3e56c:	f5 01       	movw	r30, r10
					break;

			}
			PrintHexByte(theValue);
			sendchar(0x20);
			if ((theValue >= 0x20) && (theValue < 0x7f))
   3e56e:	8f 35       	cpi	r24, 0x5F	; 95
   3e570:	10 f4       	brcc	.+4      	; 0x3e576 <DumpHex.constprop.0+0xc2>
			{
				asciiDump[ii % 16]	=	theValue;
   3e572:	10 83       	st	Z, r17
   3e574:	01 c0       	rjmp	.+2      	; 0x3e578 <DumpHex.constprop.0+0xc4>
			}
			else
			{
				asciiDump[ii % 16]	=	'.';
   3e576:	30 82       	st	Z, r3
			}

			myAddressPointer++;
   3e578:	ff ef       	ldi	r31, 0xFF	; 255
   3e57a:	4f 1a       	sub	r4, r31
   3e57c:	5f 0a       	sbc	r5, r31
   3e57e:	6f 0a       	sbc	r6, r31
   3e580:	7f 0a       	sbc	r7, r31
   3e582:	8f ef       	ldi	r24, 0xFF	; 255
   3e584:	a8 1a       	sub	r10, r24
   3e586:	b8 0a       	sbc	r11, r24
		sendchar(0x20);
		sendchar('-');
		sendchar(0x20);

		asciiDump[0]		=	0;
		for (ii=0; ii<16; ii++)
   3e588:	2a 10       	cpse	r2, r10
   3e58a:	d7 cf       	rjmp	.-82     	; 0x3e53a <DumpHex.constprop.0+0x86>
   3e58c:	90 e1       	ldi	r25, 0x10	; 16
   3e58e:	c9 0e       	add	r12, r25
   3e590:	d1 1c       	adc	r13, r1
   3e592:	e1 1c       	adc	r14, r1
   3e594:	f1 1c       	adc	r15, r1
				asciiDump[ii % 16]	=	'.';
			}

			myAddressPointer++;
		}
		asciiDump[16]	=	0;
   3e596:	19 8a       	std	Y+17, r1	; 0x11
		PrintString(asciiDump);
   3e598:	c4 01       	movw	r24, r8
   3e59a:	0f 94 ef f1 	call	0x3e3de	; 0x3e3de <PrintString>
		PrintNewLine();
   3e59e:	0f 94 e5 f1 	call	0x3e3ca	; 0x3e3ca <PrintNewLine>
   3e5a2:	01 50       	subi	r16, 0x01	; 1


	ramPtr				=	0;
	theValue			=	0;
	myAddressPointer	=	startAddress;
	while (numRows > 0)
   3e5a4:	09 f0       	breq	.+2      	; 0x3e5a8 <DumpHex.constprop.0+0xf4>
   3e5a6:	ad cf       	rjmp	.-166    	; 0x3e502 <DumpHex.constprop.0+0x4e>
		PrintString(asciiDump);
		PrintNewLine();

		numRows--;
	}
}
   3e5a8:	63 96       	adiw	r28, 0x13	; 19
   3e5aa:	0f b6       	in	r0, 0x3f	; 63
   3e5ac:	f8 94       	cli
   3e5ae:	de bf       	out	0x3e, r29	; 62
   3e5b0:	0f be       	out	0x3f, r0	; 63
   3e5b2:	cd bf       	out	0x3d, r28	; 61
   3e5b4:	df 91       	pop	r29
   3e5b6:	cf 91       	pop	r28
   3e5b8:	1f 91       	pop	r17
   3e5ba:	0f 91       	pop	r16
   3e5bc:	ff 90       	pop	r15
   3e5be:	ef 90       	pop	r14
   3e5c0:	df 90       	pop	r13
   3e5c2:	cf 90       	pop	r12
   3e5c4:	bf 90       	pop	r11
   3e5c6:	af 90       	pop	r10
   3e5c8:	9f 90       	pop	r9
   3e5ca:	8f 90       	pop	r8
   3e5cc:	7f 90       	pop	r7
   3e5ce:	6f 90       	pop	r6
   3e5d0:	5f 90       	pop	r5
   3e5d2:	4f 90       	pop	r4
   3e5d4:	3f 90       	pop	r3
   3e5d6:	2f 90       	pop	r2
   3e5d8:	08 95       	ret

0003e5da <main>:
void (*app_start)(void) = 0x0000;


//*****************************************************************************
int main(void)
{
   3e5da:	cf 93       	push	r28
   3e5dc:	df 93       	push	r29
   3e5de:	cd b7       	in	r28, 0x3d	; 61
   3e5e0:	de b7       	in	r29, 0x3e	; 62
   3e5e2:	c0 53       	subi	r28, 0x30	; 48
   3e5e4:	d1 40       	sbci	r29, 0x01	; 1
   3e5e6:	0f b6       	in	r0, 0x3f	; 63
   3e5e8:	f8 94       	cli
   3e5ea:	de bf       	out	0x3e, r29	; 62
   3e5ec:	0f be       	out	0x3f, r0	; 63
   3e5ee:	cd bf       	out	0x3d, r28	; 61
	unsigned int	rcvdCharCntr	=	0;
#endif

	//*	some chips dont set the stack properly
	asm volatile ( ".set __stack, %0" :: "i" (RAMEND) );
	asm volatile ( "ldi	16, %0" :: "i" (RAMEND >> 8) );
   3e5f0:	01 e2       	ldi	r16, 0x21	; 33
	asm volatile ( "out %0,16" :: "i" (AVR_STACK_POINTER_HI_ADDR) );
   3e5f2:	0e bf       	out	0x3e, r16	; 62
	asm volatile ( "ldi	16, %0" :: "i" (RAMEND & 0x0ff) );
   3e5f4:	0f ef       	ldi	r16, 0xFF	; 255
	asm volatile ( "out %0,16" :: "i" (AVR_STACK_POINTER_LO_ADDR) );
   3e5f6:	0d bf       	out	0x3d, r16	; 61
#ifdef _FIX_ISSUE_181_
	//************************************************************************
	//*	Dec 29,	2011	<MLS> Issue #181, added watch dog timmer support
	//*	handle the watch dog timer
	uint8_t	mcuStatusReg;
	mcuStatusReg	=	MCUSR;
   3e5f8:	94 b7       	in	r25, 0x34	; 52

	__asm__ __volatile__ ("cli");
   3e5fa:	f8 94       	cli
	__asm__ __volatile__ ("wdr");
   3e5fc:	a8 95       	wdr
	MCUSR	=	0;
   3e5fe:	14 be       	out	0x34, r1	; 52
	WDTCSR	|=	_BV(WDCE) | _BV(WDE);
   3e600:	80 91 60 00 	lds	r24, 0x0060	; 0x800060 <__TEXT_REGION_LENGTH__+0x700060>
   3e604:	88 61       	ori	r24, 0x18	; 24
   3e606:	80 93 60 00 	sts	0x0060, r24	; 0x800060 <__TEXT_REGION_LENGTH__+0x700060>
	WDTCSR	=	0;
   3e60a:	10 92 60 00 	sts	0x0060, r1	; 0x800060 <__TEXT_REGION_LENGTH__+0x700060>
	__asm__ __volatile__ ("sei");
   3e60e:	78 94       	sei
	// check if WDT generated the reset, if so, go straight to app
	if (mcuStatusReg & _BV(WDRF))
   3e610:	93 ff       	sbrs	r25, 3
   3e612:	05 c0       	rjmp	.+10     	; 0x3e61e <main+0x44>
	{
		app_start();
   3e614:	e0 91 04 02 	lds	r30, 0x0204	; 0x800204 <__data_end>
   3e618:	f0 91 05 02 	lds	r31, 0x0205	; 0x800205 <__data_end+0x1>
   3e61c:	19 95       	eicall
	 * Branch to bootloader or application code ?
	 */

#ifndef REMOVE_BOOTLOADER_LED
	/* PROG_PIN pulled low, indicate with LED that bootloader is active */
	PROGLED_DDR		|=	(1<<PROGLED_PIN);
   3e61e:	27 9a       	sbi	0x04, 7	; 4
//	PROGLED_PORT	&=	~(1<<PROGLED_PIN);	// active low LED ON
	PROGLED_PORT	|=	(1<<PROGLED_PIN);	// active high LED ON
   3e620:	2f 9a       	sbi	0x05, 7	; 5
	/*
	 * Init UART
	 * set baudrate and enable USART receiver and transmiter without interrupts
	 */
#if UART_BAUDRATE_DOUBLE_SPEED
	UART_STATUS_REG		|=	(1 <<UART_DOUBLE_SPEED);
   3e622:	80 91 c0 00 	lds	r24, 0x00C0	; 0x8000c0 <__TEXT_REGION_LENGTH__+0x7000c0>
   3e626:	82 60       	ori	r24, 0x02	; 2
   3e628:	80 93 c0 00 	sts	0x00C0, r24	; 0x8000c0 <__TEXT_REGION_LENGTH__+0x7000c0>
#endif
	UART_BAUD_RATE_LOW	=	UART_BAUD_SELECT(BAUDRATE,F_CPU);
   3e62c:	82 e2       	ldi	r24, 0x22	; 34
   3e62e:	80 93 c4 00 	sts	0x00C4, r24	; 0x8000c4 <__TEXT_REGION_LENGTH__+0x7000c4>
	UART_CONTROL_REG	=	(1 << UART_ENABLE_RECEIVER) | (1 << UART_ENABLE_TRANSMITTER);
   3e632:	88 e1       	ldi	r24, 0x18	; 24
   3e634:	80 93 c1 00 	sts	0x00C1, r24	; 0x8000c1 <__TEXT_REGION_LENGTH__+0x7000c1>

	asm volatile ("nop");			// wait until port has changed
   3e638:	00 00       	nop
	}
	//************************************************************************
#endif


	boot_timer	=	0;
   3e63a:	c1 2c       	mov	r12, r1
   3e63c:	d1 2c       	mov	r13, r1
   3e63e:	76 01       	movw	r14, r12
			if (boot_timer > boot_timeout)
			{
				boot_state	=	1; // (after ++ -> boot_state=2 bootloader timeout, jump to main 0x00000 )
			}
		#ifdef BLINK_LED_WHILE_WAITING
			if ((boot_timer % _BLINK_LOOP_COUNT_) == 0)
   3e640:	a7 ec       	ldi	r26, 0xC7	; 199
   3e642:	8a 2e       	mov	r8, r26
   3e644:	ab e1       	ldi	r26, 0x1B	; 27
   3e646:	9a 2e       	mov	r9, r26
   3e648:	a1 2c       	mov	r10, r1
   3e64a:	b1 2c       	mov	r11, r1
void (*app_start)(void) = 0x0000;


//*****************************************************************************
int main(void)
{
   3e64c:	00 e0       	ldi	r16, 0x00	; 0
   3e64e:	10 e0       	ldi	r17, 0x00	; 0


//************************************************************************
static int	Serial_Available(void)
{
	return(UART_STATUS_REG & (1 << UART_RECEIVE_COMPLETE));	// wait for data
   3e650:	80 91 c0 00 	lds	r24, 0x00C0	; 0x8000c0 <__TEXT_REGION_LENGTH__+0x7000c0>
	delay_ms(100);
#endif

	while (boot_state==0)
	{
		while ((!(Serial_Available())) && (boot_state == 0))		// wait for data
   3e654:	87 ff       	sbrs	r24, 7
   3e656:	05 c0       	rjmp	.+10     	; 0x3e662 <main+0x88>
				//*	toggle the LED
				PROGLED_PORT	^=	(1<<PROGLED_PIN);	// turn LED ON
			}
		#endif
		}
		boot_state++; // ( if boot_state=1 bootloader received byte from UART, enter bootloader mode)
   3e658:	a8 01       	movw	r20, r16
   3e65a:	4f 5f       	subi	r20, 0xFF	; 255
   3e65c:	5f 4f       	sbci	r21, 0xFF	; 255
	sendchar(0x0a);

	delay_ms(100);
#endif

	while (boot_state==0)
   3e65e:	b1 f3       	breq	.-20     	; 0x3e64c <main+0x72>
   3e660:	26 c0       	rjmp	.+76     	; 0x3e6ae <main+0xd4>
	{
		while ((!(Serial_Available())) && (boot_state == 0))		// wait for data
   3e662:	01 15       	cp	r16, r1
   3e664:	11 05       	cpc	r17, r1
   3e666:	c1 f7       	brne	.-16     	; 0x3e658 <main+0x7e>
   3e668:	25 e0       	ldi	r18, 0x05	; 5
   3e66a:	2a 95       	dec	r18
   3e66c:	f1 f7       	brne	.-4      	; 0x3e66a <main+0x90>
   3e66e:	00 00       	nop
		{
			_delay_ms(0.001);
			boot_timer++;
   3e670:	3f ef       	ldi	r19, 0xFF	; 255
   3e672:	c3 1a       	sub	r12, r19
   3e674:	d3 0a       	sbc	r13, r19
   3e676:	e3 0a       	sbc	r14, r19
   3e678:	f3 0a       	sbc	r15, r19
			if (boot_timer > boot_timeout)
   3e67a:	91 e0       	ldi	r25, 0x01	; 1
   3e67c:	80 e0       	ldi	r24, 0x00	; 0
   3e67e:	41 e2       	ldi	r20, 0x21	; 33
   3e680:	c4 16       	cp	r12, r20
   3e682:	4e e4       	ldi	r20, 0x4E	; 78
   3e684:	d4 06       	cpc	r13, r20
   3e686:	e1 04       	cpc	r14, r1
   3e688:	f1 04       	cpc	r15, r1
   3e68a:	08 f4       	brcc	.+2      	; 0x3e68e <main+0xb4>
   3e68c:	90 e0       	ldi	r25, 0x00	; 0
			{
				boot_state	=	1; // (after ++ -> boot_state=2 bootloader timeout, jump to main 0x00000 )
   3e68e:	09 2f       	mov	r16, r25
   3e690:	18 2f       	mov	r17, r24
			}
		#ifdef BLINK_LED_WHILE_WAITING
			if ((boot_timer % _BLINK_LOOP_COUNT_) == 0)
   3e692:	c7 01       	movw	r24, r14
   3e694:	b6 01       	movw	r22, r12
   3e696:	a5 01       	movw	r20, r10
   3e698:	94 01       	movw	r18, r8
   3e69a:	0f 94 6b fb 	call	0x3f6d6	; 0x3f6d6 <__udivmodsi4>
   3e69e:	67 2b       	or	r22, r23
   3e6a0:	68 2b       	or	r22, r24
   3e6a2:	69 2b       	or	r22, r25
   3e6a4:	a9 f6       	brne	.-86     	; 0x3e650 <main+0x76>
			{
				//*	toggle the LED
				PROGLED_PORT	^=	(1<<PROGLED_PIN);	// turn LED ON
   3e6a6:	85 b1       	in	r24, 0x05	; 5
   3e6a8:	80 58       	subi	r24, 0x80	; 128
   3e6aa:	85 b9       	out	0x05, r24	; 5
   3e6ac:	d1 cf       	rjmp	.-94     	; 0x3e650 <main+0x76>
		}
		boot_state++; // ( if boot_state=1 bootloader received byte from UART, enter bootloader mode)
	}


	if (boot_state==1)
   3e6ae:	41 30       	cpi	r20, 0x01	; 1
   3e6b0:	51 05       	cpc	r21, r1
   3e6b2:	11 f0       	breq	.+4      	; 0x3e6b8 <main+0xde>
   3e6b4:	0d 94 35 fb 	jmp	0x3f66a	; 0x3f66a <main+0x1090>
   3e6b8:	c5 5d       	subi	r28, 0xD5	; 213
   3e6ba:	de 4f       	sbci	r29, 0xFE	; 254
   3e6bc:	19 82       	std	Y+1, r1	; 0x01
   3e6be:	18 82       	st	Y, r1
   3e6c0:	cb 52       	subi	r28, 0x2B	; 43
   3e6c2:	d1 40       	sbci	r29, 0x01	; 1
   3e6c4:	a1 2c       	mov	r10, r1
   3e6c6:	b1 2c       	mov	r11, r1
   3e6c8:	c6 5d       	subi	r28, 0xD6	; 214
   3e6ca:	de 4f       	sbci	r29, 0xFE	; 254
   3e6cc:	18 82       	st	Y, r1
   3e6ce:	ca 52       	subi	r28, 0x2A	; 42
   3e6d0:	d1 40       	sbci	r29, 0x01	; 1
   3e6d2:	10 e0       	ldi	r17, 0x00	; 0
   3e6d4:	21 2c       	mov	r2, r1
   3e6d6:	31 2c       	mov	r3, r1
   3e6d8:	ca 5d       	subi	r28, 0xDA	; 218
   3e6da:	de 4f       	sbci	r29, 0xFE	; 254
   3e6dc:	18 82       	st	Y, r1
   3e6de:	19 82       	std	Y+1, r1	; 0x01
   3e6e0:	1a 82       	std	Y+2, r1	; 0x02
   3e6e2:	1b 82       	std	Y+3, r1	; 0x03
   3e6e4:	c6 52       	subi	r28, 0x26	; 38
   3e6e6:	d1 40       	sbci	r29, 0x01	; 1
   3e6e8:	c1 2c       	mov	r12, r1
   3e6ea:	d1 2c       	mov	r13, r1
   3e6ec:	76 01       	movw	r14, r12
	}
	//************************************************************************
#endif


	boot_timer	=	0;
   3e6ee:	20 e0       	ldi	r18, 0x00	; 0
   3e6f0:	30 e0       	ldi	r19, 0x00	; 0
   3e6f2:	80 e0       	ldi	r24, 0x00	; 0
			 * Collect received bytes to a complete message
			 */
			msgParseState	=	ST_START;
			while ( msgParseState != ST_PROCESS )
			{
				if (boot_state==1)
   3e6f4:	41 30       	cpi	r20, 0x01	; 1
   3e6f6:	51 05       	cpc	r21, r1
   3e6f8:	c1 f0       	breq	.+48     	; 0x3e72a <main+0x150>
	}
	//************************************************************************
#endif


	boot_timer	=	0;
   3e6fa:	41 e0       	ldi	r20, 0x01	; 1
   3e6fc:	52 e1       	ldi	r21, 0x12	; 18
   3e6fe:	6a e7       	ldi	r22, 0x7A	; 122
   3e700:	70 e0       	ldi	r23, 0x00	; 0
//*****************************************************************************
static unsigned char recchar_timeout(void)
{
uint32_t count = 0;

	while (!(UART_STATUS_REG & (1 << UART_RECEIVE_COMPLETE)))
   3e702:	90 91 c0 00 	lds	r25, 0x00C0	; 0x8000c0 <__TEXT_REGION_LENGTH__+0x7000c0>
   3e706:	97 fd       	sbrc	r25, 7
   3e708:	10 c0       	rjmp	.+32     	; 0x3e72a <main+0x150>
   3e70a:	41 50       	subi	r20, 0x01	; 1
   3e70c:	51 09       	sbc	r21, r1
   3e70e:	61 09       	sbc	r22, r1
   3e710:	71 09       	sbc	r23, r1
	{
		// wait for data
		count++;
		if (count > MAX_TIME_COUNT)
   3e712:	b9 f7       	brne	.-18     	; 0x3e702 <main+0x128>
		{
		unsigned int	data;
		#if (FLASHEND > 0x10000)
			data	=	pgm_read_word_far(0);	//*	get the first word of the user program
   3e714:	6b bf       	out	0x3b, r22	; 59
   3e716:	fa 01       	movw	r30, r20
   3e718:	47 91       	elpm	r20, Z+
   3e71a:	56 91       	elpm	r21, Z
		#else
			data	=	pgm_read_word_near(0);	//*	get the first word of the user program
		#endif
			if (data != 0xffff)					//*	make sure its valid before jumping to it.
   3e71c:	4f 3f       	cpi	r20, 0xFF	; 255
   3e71e:	5f 4f       	sbci	r21, 0xFF	; 255
   3e720:	61 f3       	breq	.-40     	; 0x3e6fa <main+0x120>
			{
				asm volatile(
   3e722:	ee 27       	eor	r30, r30
   3e724:	ff 27       	eor	r31, r31
   3e726:	09 94       	ijmp
   3e728:	e8 cf       	rjmp	.-48     	; 0x3e6fa <main+0x120>
						);
			}
			count	=	0;
		}
	}
	return UART_DATA_REG;
   3e72a:	90 91 c6 00 	lds	r25, 0x00C6	; 0x8000c6 <__TEXT_REGION_LENGTH__+0x7000c6>
					c	=	recchar_timeout();
					
				}

			#ifdef ENABLE_MONITOR
				rcvdCharCntr++;
   3e72e:	c5 5d       	subi	r28, 0xD5	; 213
   3e730:	de 4f       	sbci	r29, 0xFE	; 254
   3e732:	a8 81       	ld	r26, Y
   3e734:	b9 81       	ldd	r27, Y+1	; 0x01
   3e736:	cb 52       	subi	r28, 0x2B	; 43
   3e738:	d1 40       	sbci	r29, 0x01	; 1
   3e73a:	11 96       	adiw	r26, 0x01	; 1
   3e73c:	c5 5d       	subi	r28, 0xD5	; 213
   3e73e:	de 4f       	sbci	r29, 0xFE	; 254
   3e740:	b9 83       	std	Y+1, r27	; 0x01
   3e742:	a8 83       	st	Y, r26
   3e744:	cb 52       	subi	r28, 0x2B	; 43
   3e746:	d1 40       	sbci	r29, 0x01	; 1

				if ((c == '!')  && (rcvdCharCntr < 10))
   3e748:	91 32       	cpi	r25, 0x21	; 33
   3e74a:	09 f0       	breq	.+2      	; 0x3e74e <main+0x174>
   3e74c:	23 c5       	rjmp	.+2630   	; 0x3f194 <main+0xbba>
   3e74e:	1a 97       	sbiw	r26, 0x0a	; 10
   3e750:	08 f0       	brcs	.+2      	; 0x3e754 <main+0x17a>
   3e752:	6e c5       	rjmp	.+2780   	; 0x3f230 <main+0xc56>
				{
					exPointCntr++;
   3e754:	bf ef       	ldi	r27, 0xFF	; 255
   3e756:	ab 1a       	sub	r10, r27
   3e758:	bb 0a       	sbc	r11, r27
					if (exPointCntr == 3)
   3e75a:	e3 e0       	ldi	r30, 0x03	; 3
   3e75c:	ae 16       	cp	r10, r30
   3e75e:	b1 04       	cpc	r11, r1
   3e760:	09 f0       	breq	.+2      	; 0x3e764 <main+0x18a>
   3e762:	68 c5       	rjmp	.+2768   	; 0x3f234 <main+0xc5a>
   3e764:	05 e0       	ldi	r16, 0x05	; 5
   3e766:	10 e0       	ldi	r17, 0x00	; 0
	}
	//************************************************************************
#endif


	boot_timer	=	0;
   3e768:	f9 e1       	ldi	r31, 0x19	; 25
   3e76a:	af 2e       	mov	r10, r31
   3e76c:	b1 2c       	mov	r11, r1

	for (ii=0; ii<5; ii++)
	{
		for (jj=0; jj<25; jj++)
		{
			sendchar('!');
   3e76e:	81 e2       	ldi	r24, 0x21	; 33
   3e770:	0f 94 b6 f1 	call	0x3e36c	; 0x3e36c <sendchar>
   3e774:	f1 e0       	ldi	r31, 0x01	; 1
   3e776:	af 1a       	sub	r10, r31
   3e778:	b1 08       	sbc	r11, r1
unsigned char	theChar;
int				ii, jj;

	for (ii=0; ii<5; ii++)
	{
		for (jj=0; jj<25; jj++)
   3e77a:	c9 f7       	brne	.-14     	; 0x3e76e <main+0x194>
		{
			sendchar('!');
		}
		PrintNewLine();
   3e77c:	0f 94 e5 f1 	call	0x3e3ca	; 0x3e3ca <PrintNewLine>
   3e780:	01 50       	subi	r16, 0x01	; 1
   3e782:	11 09       	sbc	r17, r1
{
char			keepGoing;
unsigned char	theChar;
int				ii, jj;

	for (ii=0; ii<5; ii++)
   3e784:	89 f7       	brne	.-30     	; 0x3e768 <main+0x18e>
			sendchar('!');
		}
		PrintNewLine();
	}

	gRamIndex			=	0;
   3e786:	10 92 0e 02 	sts	0x020E, r1	; 0x80020e <gRamIndex>
   3e78a:	10 92 0f 02 	sts	0x020F, r1	; 0x80020f <gRamIndex+0x1>
   3e78e:	10 92 10 02 	sts	0x0210, r1	; 0x800210 <gRamIndex+0x2>
   3e792:	10 92 11 02 	sts	0x0211, r1	; 0x800211 <gRamIndex+0x3>
	gFlashIndex			=	0;
   3e796:	10 92 0a 02 	sts	0x020A, r1	; 0x80020a <gFlashIndex>
   3e79a:	10 92 0b 02 	sts	0x020B, r1	; 0x80020b <gFlashIndex+0x1>
   3e79e:	10 92 0c 02 	sts	0x020C, r1	; 0x80020c <gFlashIndex+0x2>
   3e7a2:	10 92 0d 02 	sts	0x020D, r1	; 0x80020d <gFlashIndex+0x3>
	gEepromIndex		=	0;
   3e7a6:	10 92 06 02 	sts	0x0206, r1	; 0x800206 <gEepromIndex>
   3e7aa:	10 92 07 02 	sts	0x0207, r1	; 0x800207 <gEepromIndex+0x1>
   3e7ae:	10 92 08 02 	sts	0x0208, r1	; 0x800208 <gEepromIndex+0x2>
   3e7b2:	10 92 09 02 	sts	0x0209, r1	; 0x800209 <gEepromIndex+0x3>

	PrintFromPROGMEMln(gTextMsg_Explorer, 0);
   3e7b6:	60 e0       	ldi	r22, 0x00	; 0
   3e7b8:	89 ee       	ldi	r24, 0xE9	; 233
   3e7ba:	92 ee       	ldi	r25, 0xE2	; 226
   3e7bc:	0f 94 eb f1 	call	0x3e3d6	; 0x3e3d6 <PrintFromPROGMEMln>
				break;
		#endif

		#ifdef DDRF
			case 'F':
				DDRF	=	0xff;
   3e7c0:	1f ef       	ldi	r17, 0xFF	; 255
	PrintFromPROGMEMln(gTextMsg_Explorer, 0);

	keepGoing	=	1;
	while (keepGoing)
	{
		PrintFromPROGMEM(gTextMsg_Prompt, 0);
   3e7c2:	60 e0       	ldi	r22, 0x00	; 0
   3e7c4:	8d ed       	ldi	r24, 0xDD	; 221
   3e7c6:	92 ee       	ldi	r25, 0xE2	; 226
   3e7c8:	0f 94 d1 f1 	call	0x3e3a2	; 0x3e3a2 <PrintFromPROGMEM>
		theChar	=	recchar();
   3e7cc:	0f 94 46 f2 	call	0x3e48c	; 0x3e48c <recchar>
   3e7d0:	08 2f       	mov	r16, r24
		if (theChar >= 0x60)
   3e7d2:	80 36       	cpi	r24, 0x60	; 96
   3e7d4:	08 f0       	brcs	.+2      	; 0x3e7d8 <main+0x1fe>
		{
			theChar	=	theChar & 0x5F;
   3e7d6:	0f 75       	andi	r16, 0x5F	; 95
		}

		if (theChar >= 0x20)
   3e7d8:	00 32       	cpi	r16, 0x20	; 32
   3e7da:	30 f0       	brcs	.+12     	; 0x3e7e8 <main+0x20e>
		{
			sendchar(theChar);
   3e7dc:	80 2f       	mov	r24, r16
   3e7de:	0f 94 b6 f1 	call	0x3e36c	; 0x3e36c <sendchar>
			sendchar(0x20);
   3e7e2:	80 e2       	ldi	r24, 0x20	; 32
   3e7e4:	0f 94 b6 f1 	call	0x3e36c	; 0x3e36c <sendchar>
		}

		switch(theChar)
   3e7e8:	06 34       	cpi	r16, 0x46	; 70
   3e7ea:	09 f4       	brne	.+2      	; 0x3e7ee <main+0x214>
   3e7ec:	d3 c1       	rjmp	.+934    	; 0x3eb94 <main+0x5ba>
   3e7ee:	08 f0       	brcs	.+2      	; 0x3e7f2 <main+0x218>
   3e7f0:	9b c0       	rjmp	.+310    	; 0x3e928 <main+0x34e>
   3e7f2:	00 34       	cpi	r16, 0x40	; 64
   3e7f4:	09 f4       	brne	.+2      	; 0x3e7f8 <main+0x21e>
   3e7f6:	0c c1       	rjmp	.+536    	; 0x3ea10 <main+0x436>
   3e7f8:	08 f0       	brcs	.+2      	; 0x3e7fc <main+0x222>
   3e7fa:	8f c0       	rjmp	.+286    	; 0x3e91a <main+0x340>
   3e7fc:	00 33       	cpi	r16, 0x30	; 48
   3e7fe:	09 f4       	brne	.+2      	; 0x3e802 <main+0x228>
   3e800:	f1 c0       	rjmp	.+482    	; 0x3e9e4 <main+0x40a>
   3e802:	0f 33       	cpi	r16, 0x3F	; 63
   3e804:	09 f0       	breq	.+2      	; 0x3e808 <main+0x22e>
   3e806:	c0 c4       	rjmp	.+2432   	; 0x3f188 <main+0xbae>
				gRamIndex		=	0;
				gEepromIndex	=	0;
				break;

			case '?':
				PrintFromPROGMEMln(gTextMsg_HELP_MSG_QM, 2);
   3e808:	62 e0       	ldi	r22, 0x02	; 2
   3e80a:	8b e6       	ldi	r24, 0x6B	; 107
   3e80c:	91 ee       	ldi	r25, 0xE1	; 225
   3e80e:	0f 94 eb f1 	call	0x3e3d6	; 0x3e3d6 <PrintFromPROGMEMln>
//************************************************************************
static void	PrintCPUstats(void)
{
unsigned char fuseByte;

	PrintFromPROGMEMln(gTextMsg_Explorer, 0);
   3e812:	60 e0       	ldi	r22, 0x00	; 0
   3e814:	89 ee       	ldi	r24, 0xE9	; 233
   3e816:	92 ee       	ldi	r25, 0xE2	; 226
   3e818:	0f 94 eb f1 	call	0x3e3d6	; 0x3e3d6 <PrintFromPROGMEMln>

	PrintFromPROGMEM(gTextMsg_COMPILED_ON, 0);
   3e81c:	60 e0       	ldi	r22, 0x00	; 0
   3e81e:	89 ec       	ldi	r24, 0xC9	; 201
   3e820:	92 ee       	ldi	r25, 0xE2	; 226
   3e822:	0f 94 d1 f1 	call	0x3e3a2	; 0x3e3a2 <PrintFromPROGMEM>
	PrintFromPROGMEMln(gTextMsg_GCC_DATE_STR, 0);
   3e826:	60 e0       	ldi	r22, 0x00	; 0
   3e828:	86 e3       	ldi	r24, 0x36	; 54
   3e82a:	92 ee       	ldi	r25, 0xE2	; 226
   3e82c:	0f 94 eb f1 	call	0x3e3d6	; 0x3e3d6 <PrintFromPROGMEMln>

	PrintFromPROGMEM(gTextMsg_CPU_Type, 0);
   3e830:	60 e0       	ldi	r22, 0x00	; 0
   3e832:	8a eb       	ldi	r24, 0xBA	; 186
   3e834:	92 ee       	ldi	r25, 0xE2	; 226
   3e836:	0f 94 d1 f1 	call	0x3e3a2	; 0x3e3a2 <PrintFromPROGMEM>
	PrintFromPROGMEMln(gTextMsg_CPU_Name, 0);
   3e83a:	60 e0       	ldi	r22, 0x00	; 0
   3e83c:	8a e0       	ldi	r24, 0x0A	; 10
   3e83e:	93 ee       	ldi	r25, 0xE3	; 227
   3e840:	0f 94 eb f1 	call	0x3e3d6	; 0x3e3d6 <PrintFromPROGMEMln>

	PrintFromPROGMEM(gTextMsg_AVR_ARCH, 0);
   3e844:	60 e0       	ldi	r22, 0x00	; 0
   3e846:	8b ea       	ldi	r24, 0xAB	; 171
   3e848:	92 ee       	ldi	r25, 0xE2	; 226
   3e84a:	0f 94 d1 f1 	call	0x3e3a2	; 0x3e3a2 <PrintFromPROGMEM>
	{
		theChar	=	0x30  + ((myNumber % 100) / 10 );
		sendchar(theChar );
	}
	theChar	=	0x30 + (myNumber % 10);
	sendchar(theChar );
   3e84e:	86 e3       	ldi	r24, 0x36	; 54
   3e850:	0f 94 b6 f1 	call	0x3e36c	; 0x3e36c <sendchar>
	PrintFromPROGMEM(gTextMsg_CPU_Type, 0);
	PrintFromPROGMEMln(gTextMsg_CPU_Name, 0);

	PrintFromPROGMEM(gTextMsg_AVR_ARCH, 0);
	PrintDecInt(__AVR_ARCH__, 1);
	PrintNewLine();
   3e854:	0f 94 e5 f1 	call	0x3e3ca	; 0x3e3ca <PrintNewLine>

	PrintFromPROGMEM(gTextMsg_GCC_VERSION, 0);
   3e858:	60 e0       	ldi	r22, 0x00	; 0
   3e85a:	8d e8       	ldi	r24, 0x8D	; 141
   3e85c:	92 ee       	ldi	r25, 0xE2	; 226
   3e85e:	0f 94 d1 f1 	call	0x3e3a2	; 0x3e3a2 <PrintFromPROGMEM>
	PrintFromPROGMEMln(gTextMsg_GCC_VERSION_STR, 0);
   3e862:	60 e0       	ldi	r22, 0x00	; 0
   3e864:	87 e2       	ldi	r24, 0x27	; 39
   3e866:	92 ee       	ldi	r25, 0xE2	; 226
   3e868:	0f 94 eb f1 	call	0x3e3d6	; 0x3e3d6 <PrintFromPROGMEMln>

	//*	these can be found in avr/version.h
	PrintFromPROGMEM(gTextMsg_AVR_LIBC, 0);
   3e86c:	60 e0       	ldi	r22, 0x00	; 0
   3e86e:	8c e9       	ldi	r24, 0x9C	; 156
   3e870:	92 ee       	ldi	r25, 0xE2	; 226
   3e872:	0f 94 d1 f1 	call	0x3e3a2	; 0x3e3a2 <PrintFromPROGMEM>
	PrintFromPROGMEMln(gTextMsg_AVR_LIBC_VER_STR, 0);
   3e876:	60 e0       	ldi	r22, 0x00	; 0
   3e878:	8d e2       	ldi	r24, 0x2D	; 45
   3e87a:	92 ee       	ldi	r25, 0xE2	; 226
   3e87c:	0f 94 eb f1 	call	0x3e3d6	; 0x3e3d6 <PrintFromPROGMEMln>

#if defined(SIGNATURE_0)
	PrintFromPROGMEM(gTextMsg_CPU_SIGNATURE, 0);
   3e880:	60 e0       	ldi	r22, 0x00	; 0
   3e882:	8e e7       	ldi	r24, 0x7E	; 126
   3e884:	92 ee       	ldi	r25, 0xE2	; 226
   3e886:	0f 94 d1 f1 	call	0x3e3a2	; 0x3e3a2 <PrintFromPROGMEM>
	//*	these can be found in avr/iomxxx.h
	PrintHexByte(SIGNATURE_0);
   3e88a:	8e e1       	ldi	r24, 0x1E	; 30
   3e88c:	0f 94 fb f1 	call	0x3e3f6	; 0x3e3f6 <PrintHexByte>
	PrintHexByte(SIGNATURE_1);
   3e890:	88 e9       	ldi	r24, 0x98	; 152
   3e892:	0f 94 fb f1 	call	0x3e3f6	; 0x3e3f6 <PrintHexByte>
	PrintHexByte(SIGNATURE_2);
   3e896:	81 e0       	ldi	r24, 0x01	; 1
   3e898:	0f 94 fb f1 	call	0x3e3f6	; 0x3e3f6 <PrintHexByte>
	PrintNewLine();
   3e89c:	0f 94 e5 f1 	call	0x3e3ca	; 0x3e3ca <PrintNewLine>
#endif


#if defined(GET_LOW_FUSE_BITS)
	//*	fuse settings
	PrintFromPROGMEM(gTextMsg_FUSE_BYTE_LOW, 0);
   3e8a0:	60 e0       	ldi	r22, 0x00	; 0
   3e8a2:	8f e6       	ldi	r24, 0x6F	; 111
   3e8a4:	92 ee       	ldi	r25, 0xE2	; 226
   3e8a6:	0f 94 d1 f1 	call	0x3e3a2	; 0x3e3a2 <PrintFromPROGMEM>
	fuseByte	=	boot_lock_fuse_bits_get(GET_LOW_FUSE_BITS);
   3e8aa:	29 e0       	ldi	r18, 0x09	; 9
   3e8ac:	e0 e0       	ldi	r30, 0x00	; 0
   3e8ae:	f0 e0       	ldi	r31, 0x00	; 0
   3e8b0:	20 93 57 00 	sts	0x0057, r18	; 0x800057 <__TEXT_REGION_LENGTH__+0x700057>
   3e8b4:	84 91       	lpm	r24, Z
	PrintHexByte(fuseByte);
   3e8b6:	0f 94 fb f1 	call	0x3e3f6	; 0x3e3f6 <PrintHexByte>
	PrintNewLine();
   3e8ba:	0f 94 e5 f1 	call	0x3e3ca	; 0x3e3ca <PrintNewLine>

	PrintFromPROGMEM(gTextMsg_FUSE_BYTE_HIGH, 0);
   3e8be:	60 e0       	ldi	r22, 0x00	; 0
   3e8c0:	80 e6       	ldi	r24, 0x60	; 96
   3e8c2:	92 ee       	ldi	r25, 0xE2	; 226
   3e8c4:	0f 94 d1 f1 	call	0x3e3a2	; 0x3e3a2 <PrintFromPROGMEM>
	fuseByte	=	boot_lock_fuse_bits_get(GET_HIGH_FUSE_BITS);
   3e8c8:	29 e0       	ldi	r18, 0x09	; 9
   3e8ca:	e3 e0       	ldi	r30, 0x03	; 3
   3e8cc:	f0 e0       	ldi	r31, 0x00	; 0
   3e8ce:	20 93 57 00 	sts	0x0057, r18	; 0x800057 <__TEXT_REGION_LENGTH__+0x700057>
   3e8d2:	84 91       	lpm	r24, Z
	PrintHexByte(fuseByte);
   3e8d4:	0f 94 fb f1 	call	0x3e3f6	; 0x3e3f6 <PrintHexByte>
	PrintNewLine();
   3e8d8:	0f 94 e5 f1 	call	0x3e3ca	; 0x3e3ca <PrintNewLine>

	PrintFromPROGMEM(gTextMsg_FUSE_BYTE_EXT, 0);
   3e8dc:	60 e0       	ldi	r22, 0x00	; 0
   3e8de:	81 e5       	ldi	r24, 0x51	; 81
   3e8e0:	92 ee       	ldi	r25, 0xE2	; 226
   3e8e2:	0f 94 d1 f1 	call	0x3e3a2	; 0x3e3a2 <PrintFromPROGMEM>
	fuseByte	=	boot_lock_fuse_bits_get(GET_EXTENDED_FUSE_BITS);
   3e8e6:	e2 e0       	ldi	r30, 0x02	; 2
   3e8e8:	f0 e0       	ldi	r31, 0x00	; 0
   3e8ea:	39 e0       	ldi	r19, 0x09	; 9
   3e8ec:	30 93 57 00 	sts	0x0057, r19	; 0x800057 <__TEXT_REGION_LENGTH__+0x700057>
   3e8f0:	84 91       	lpm	r24, Z
	PrintHexByte(fuseByte);
   3e8f2:	0f 94 fb f1 	call	0x3e3f6	; 0x3e3f6 <PrintHexByte>
	PrintNewLine();
   3e8f6:	0f 94 e5 f1 	call	0x3e3ca	; 0x3e3ca <PrintNewLine>

	PrintFromPROGMEM(gTextMsg_FUSE_BYTE_LOCK, 0);
   3e8fa:	60 e0       	ldi	r22, 0x00	; 0
   3e8fc:	82 e4       	ldi	r24, 0x42	; 66
   3e8fe:	92 ee       	ldi	r25, 0xE2	; 226
   3e900:	0f 94 d1 f1 	call	0x3e3a2	; 0x3e3a2 <PrintFromPROGMEM>
	fuseByte	=	boot_lock_fuse_bits_get(GET_LOCK_BITS);
   3e904:	e1 e0       	ldi	r30, 0x01	; 1
   3e906:	f0 e0       	ldi	r31, 0x00	; 0
   3e908:	49 e0       	ldi	r20, 0x09	; 9
   3e90a:	40 93 57 00 	sts	0x0057, r20	; 0x800057 <__TEXT_REGION_LENGTH__+0x700057>
   3e90e:	84 91       	lpm	r24, Z
	PrintHexByte(fuseByte);
   3e910:	0f 94 fb f1 	call	0x3e3f6	; 0x3e3f6 <PrintHexByte>
	PrintNewLine();
   3e914:	0f 94 e5 f1 	call	0x3e3ca	; 0x3e3ca <PrintNewLine>
   3e918:	54 cf       	rjmp	.-344    	; 0x3e7c2 <main+0x1e8>
		{
			sendchar(theChar);
			sendchar(0x20);
		}

		switch(theChar)
   3e91a:	02 34       	cpi	r16, 0x42	; 66
   3e91c:	09 f4       	brne	.+2      	; 0x3e920 <main+0x346>
   3e91e:	f6 c0       	rjmp	.+492    	; 0x3eb0c <main+0x532>
   3e920:	05 34       	cpi	r16, 0x45	; 69
   3e922:	09 f4       	brne	.+2      	; 0x3e926 <main+0x34c>
   3e924:	0d c1       	rjmp	.+538    	; 0x3eb40 <main+0x566>
   3e926:	30 c4       	rjmp	.+2144   	; 0x3f188 <main+0xbae>
   3e928:	01 35       	cpi	r16, 0x51	; 81
   3e92a:	09 f4       	brne	.+2      	; 0x3e92e <main+0x354>
   3e92c:	97 c1       	rjmp	.+814    	; 0x3ec5c <main+0x682>
   3e92e:	68 f5       	brcc	.+90     	; 0x3e98a <main+0x3b0>
   3e930:	08 34       	cpi	r16, 0x48	; 72
   3e932:	09 f4       	brne	.+2      	; 0x3e936 <main+0x35c>
   3e934:	53 c1       	rjmp	.+678    	; 0x3ebdc <main+0x602>
   3e936:	0c 34       	cpi	r16, 0x4C	; 76
   3e938:	09 f0       	breq	.+2      	; 0x3e93c <main+0x362>
   3e93a:	26 c4       	rjmp	.+2124   	; 0x3f188 <main+0xbae>
				PrintFromPROGMEMln(gTextMsg_HELP_MSG_H, 2);
				PrintHelp();
				break;

			case 'L':
				PrintFromPROGMEMln(gTextMsg_HELP_MSG_L, 2);
   3e93c:	62 e0       	ldi	r22, 0x02	; 2
   3e93e:	8e e1       	ldi	r24, 0x1E	; 30
   3e940:	91 ee       	ldi	r25, 0xE1	; 225
   3e942:	0f 94 eb f1 	call	0x3e3d6	; 0x3e3d6 <PrintFromPROGMEMln>
//************************************************************************
static void	ListAvailablePorts(void)
{

#ifdef DDRA
	PrintAvailablePort('A');
   3e946:	81 e4       	ldi	r24, 0x41	; 65
   3e948:	0f 94 4d f2 	call	0x3e49a	; 0x3e49a <PrintAvailablePort>
#endif

#ifdef DDRB
	PrintAvailablePort('B');
   3e94c:	82 e4       	ldi	r24, 0x42	; 66
   3e94e:	0f 94 4d f2 	call	0x3e49a	; 0x3e49a <PrintAvailablePort>
#endif

#ifdef DDRC
	PrintAvailablePort('C');
   3e952:	83 e4       	ldi	r24, 0x43	; 67
   3e954:	0f 94 4d f2 	call	0x3e49a	; 0x3e49a <PrintAvailablePort>
#endif

#ifdef DDRD
	PrintAvailablePort('D');
   3e958:	84 e4       	ldi	r24, 0x44	; 68
   3e95a:	0f 94 4d f2 	call	0x3e49a	; 0x3e49a <PrintAvailablePort>
#endif

#ifdef DDRE
	PrintAvailablePort('E');
   3e95e:	85 e4       	ldi	r24, 0x45	; 69
   3e960:	0f 94 4d f2 	call	0x3e49a	; 0x3e49a <PrintAvailablePort>
#endif

#ifdef DDRF
	PrintAvailablePort('F');
   3e964:	86 e4       	ldi	r24, 0x46	; 70
   3e966:	0f 94 4d f2 	call	0x3e49a	; 0x3e49a <PrintAvailablePort>
#endif

#ifdef DDRG
	PrintAvailablePort('G');
   3e96a:	87 e4       	ldi	r24, 0x47	; 71
   3e96c:	0f 94 4d f2 	call	0x3e49a	; 0x3e49a <PrintAvailablePort>
#endif

#ifdef DDRH
	PrintAvailablePort('H');
   3e970:	88 e4       	ldi	r24, 0x48	; 72
   3e972:	0f 94 4d f2 	call	0x3e49a	; 0x3e49a <PrintAvailablePort>
#ifdef DDRI
	PrintAvailablePort('I');
#endif

#ifdef DDRJ
	PrintAvailablePort('J');
   3e976:	8a e4       	ldi	r24, 0x4A	; 74
   3e978:	0f 94 4d f2 	call	0x3e49a	; 0x3e49a <PrintAvailablePort>
#endif

#ifdef DDRK
	PrintAvailablePort('K');
   3e97c:	8b e4       	ldi	r24, 0x4B	; 75
   3e97e:	0f 94 4d f2 	call	0x3e49a	; 0x3e49a <PrintAvailablePort>
#endif

#ifdef DDRL
	PrintAvailablePort('L');
   3e982:	8c e4       	ldi	r24, 0x4C	; 76
   3e984:	0f 94 4d f2 	call	0x3e49a	; 0x3e49a <PrintAvailablePort>
   3e988:	1c cf       	rjmp	.-456    	; 0x3e7c2 <main+0x1e8>
		{
			sendchar(theChar);
			sendchar(0x20);
		}

		switch(theChar)
   3e98a:	06 35       	cpi	r16, 0x56	; 86
   3e98c:	09 f4       	brne	.+2      	; 0x3e990 <main+0x3b6>
   3e98e:	70 c1       	rjmp	.+736    	; 0x3ec70 <main+0x696>
   3e990:	09 35       	cpi	r16, 0x59	; 89
   3e992:	09 f4       	brne	.+2      	; 0x3e996 <main+0x3bc>
   3e994:	ff c2       	rjmp	.+1534   	; 0x3ef94 <main+0x9ba>
   3e996:	02 35       	cpi	r16, 0x52	; 82
   3e998:	09 f0       	breq	.+2      	; 0x3e99c <main+0x3c2>
   3e99a:	f6 c3       	rjmp	.+2028   	; 0x3f188 <main+0xbae>
				PrintFromPROGMEMln(gTextMsg_HELP_MSG_Q, 2);
				keepGoing	=	false;
				break;

			case 'R':
				PrintFromPROGMEMln(gTextMsg_HELP_MSG_R, 2);
   3e99c:	62 e0       	ldi	r22, 0x02	; 2
   3e99e:	8c e0       	ldi	r24, 0x0C	; 12
   3e9a0:	91 ee       	ldi	r25, 0xE1	; 225
   3e9a2:	0f 94 eb f1 	call	0x3e3d6	; 0x3e3d6 <PrintFromPROGMEMln>
				DumpHex(kDUMP_RAM, gRamIndex, 16);
   3e9a6:	40 91 0e 02 	lds	r20, 0x020E	; 0x80020e <gRamIndex>
   3e9aa:	50 91 0f 02 	lds	r21, 0x020F	; 0x80020f <gRamIndex+0x1>
   3e9ae:	60 91 10 02 	lds	r22, 0x0210	; 0x800210 <gRamIndex+0x2>
   3e9b2:	70 91 11 02 	lds	r23, 0x0211	; 0x800211 <gRamIndex+0x3>
   3e9b6:	82 e0       	ldi	r24, 0x02	; 2
   3e9b8:	0f 94 5a f2 	call	0x3e4b4	; 0x3e4b4 <DumpHex.constprop.0>
				gRamIndex	+=	256;
   3e9bc:	80 91 0e 02 	lds	r24, 0x020E	; 0x80020e <gRamIndex>
   3e9c0:	90 91 0f 02 	lds	r25, 0x020F	; 0x80020f <gRamIndex+0x1>
   3e9c4:	a0 91 10 02 	lds	r26, 0x0210	; 0x800210 <gRamIndex+0x2>
   3e9c8:	b0 91 11 02 	lds	r27, 0x0211	; 0x800211 <gRamIndex+0x3>
   3e9cc:	9f 5f       	subi	r25, 0xFF	; 255
   3e9ce:	af 4f       	sbci	r26, 0xFF	; 255
   3e9d0:	bf 4f       	sbci	r27, 0xFF	; 255
   3e9d2:	80 93 0e 02 	sts	0x020E, r24	; 0x80020e <gRamIndex>
   3e9d6:	90 93 0f 02 	sts	0x020F, r25	; 0x80020f <gRamIndex+0x1>
   3e9da:	a0 93 10 02 	sts	0x0210, r26	; 0x800210 <gRamIndex+0x2>
   3e9de:	b0 93 11 02 	sts	0x0211, r27	; 0x800211 <gRamIndex+0x3>
   3e9e2:	ef ce       	rjmp	.-546    	; 0x3e7c2 <main+0x1e8>
		}

		switch(theChar)
		{
			case '0':
				PrintFromPROGMEMln(gTextMsg_HELP_MSG_0, 2);
   3e9e4:	62 e0       	ldi	r22, 0x02	; 2
   3e9e6:	87 e7       	ldi	r24, 0x77	; 119
   3e9e8:	91 ee       	ldi	r25, 0xE1	; 225
   3e9ea:	0f 94 eb f1 	call	0x3e3d6	; 0x3e3d6 <PrintFromPROGMEMln>
				gFlashIndex		=	0;
   3e9ee:	10 92 0a 02 	sts	0x020A, r1	; 0x80020a <gFlashIndex>
   3e9f2:	10 92 0b 02 	sts	0x020B, r1	; 0x80020b <gFlashIndex+0x1>
   3e9f6:	10 92 0c 02 	sts	0x020C, r1	; 0x80020c <gFlashIndex+0x2>
   3e9fa:	10 92 0d 02 	sts	0x020D, r1	; 0x80020d <gFlashIndex+0x3>
				gRamIndex		=	0;
   3e9fe:	10 92 0e 02 	sts	0x020E, r1	; 0x80020e <gRamIndex>
   3ea02:	10 92 0f 02 	sts	0x020F, r1	; 0x80020f <gRamIndex+0x1>
   3ea06:	10 92 10 02 	sts	0x0210, r1	; 0x800210 <gRamIndex+0x2>
   3ea0a:	10 92 11 02 	sts	0x0211, r1	; 0x800211 <gRamIndex+0x3>
   3ea0e:	72 c0       	rjmp	.+228    	; 0x3eaf4 <main+0x51a>
				PrintFromPROGMEMln(gTextMsg_HELP_MSG_QM, 2);
				PrintCPUstats();
				break;

			case '@':
				PrintFromPROGMEMln(gTextMsg_HELP_MSG_AT, 2);
   3ea10:	62 e0       	ldi	r22, 0x02	; 2
   3ea12:	8d e5       	ldi	r24, 0x5D	; 93
   3ea14:	91 ee       	ldi	r25, 0xE1	; 225
   3ea16:	0f 94 eb f1 	call	0x3e3d6	; 0x3e3d6 <PrintFromPROGMEMln>
int		ii;
char	theChar;
char	theEEPROMchar;
int		errorCount;

	PrintFromPROGMEMln(gTextMsg_WriteToEEprom, 0);
   3ea1a:	60 e0       	ldi	r22, 0x00	; 0
   3ea1c:	8f e9       	ldi	r24, 0x9F	; 159
   3ea1e:	91 ee       	ldi	r25, 0xE1	; 225
   3ea20:	0f 94 eb f1 	call	0x3e3d6	; 0x3e3d6 <PrintFromPROGMEMln>
	PrintNewLine();
   3ea24:	0f 94 e5 f1 	call	0x3e3ca	; 0x3e3ca <PrintNewLine>
	ii			=	0;
   3ea28:	a1 2c       	mov	r10, r1
   3ea2a:	b1 2c       	mov	r11, r1
   3ea2c:	c5 01       	movw	r24, r10
   3ea2e:	87 51       	subi	r24, 0x17	; 23
   3ea30:	9d 41       	sbci	r25, 0x1D	; 29
#if (FLASHEND > 0x10000)
	while (((theChar = pgm_read_byte_far(((uint16_t)gTextMsg_Explorer) + ii)) != '*') && (ii < 512))
   3ea32:	a0 e0       	ldi	r26, 0x00	; 0
   3ea34:	b0 e0       	ldi	r27, 0x00	; 0
   3ea36:	ab bf       	out	0x3b, r26	; 59
   3ea38:	fc 01       	movw	r30, r24
   3ea3a:	07 91       	elpm	r16, Z+
   3ea3c:	0a 32       	cpi	r16, 0x2A	; 42
   3ea3e:	81 f4       	brne	.+32     	; 0x3ea60 <main+0x486>
		}
		ii++;
	}

	//*	no go back through and test
	PrintNewLine();
   3ea40:	0f 94 e5 f1 	call	0x3e3ca	; 0x3e3ca <PrintNewLine>
	PrintNewLine();
   3ea44:	0f 94 e5 f1 	call	0x3e3ca	; 0x3e3ca <PrintNewLine>
	PrintFromPROGMEMln(gTextMsg_ReadingEEprom, 0);
   3ea48:	60 e0       	ldi	r22, 0x00	; 0
   3ea4a:	84 e9       	ldi	r24, 0x94	; 148
   3ea4c:	91 ee       	ldi	r25, 0xE1	; 225
   3ea4e:	0f 94 eb f1 	call	0x3e3d6	; 0x3e3d6 <PrintFromPROGMEMln>
	PrintNewLine();
   3ea52:	0f 94 e5 f1 	call	0x3e3ca	; 0x3e3ca <PrintNewLine>
	errorCount	=	0;
   3ea56:	81 2c       	mov	r8, r1
   3ea58:	91 2c       	mov	r9, r1
	ii			=	0;
   3ea5a:	a1 2c       	mov	r10, r1
   3ea5c:	b1 2c       	mov	r11, r1
   3ea5e:	2e c0       	rjmp	.+92     	; 0x3eabc <main+0x4e2>

	PrintFromPROGMEMln(gTextMsg_WriteToEEprom, 0);
	PrintNewLine();
	ii			=	0;
#if (FLASHEND > 0x10000)
	while (((theChar = pgm_read_byte_far(((uint16_t)gTextMsg_Explorer) + ii)) != '*') && (ii < 512))
   3ea60:	a1 14       	cp	r10, r1
   3ea62:	82 e0       	ldi	r24, 0x02	; 2
   3ea64:	b8 06       	cpc	r11, r24
   3ea66:	61 f3       	breq	.-40     	; 0x3ea40 <main+0x466>
#else
	while (((theChar = pgm_read_byte_near(((uint16_t)gTextMsg_Explorer) + ii)) != '*') && (ii < 512))
#endif
	{
		eeprom_write_byte((uint8_t *)ii, theChar);
   3ea68:	60 2f       	mov	r22, r16
   3ea6a:	c5 01       	movw	r24, r10
   3ea6c:	0f 94 a9 fb 	call	0x3f752	; 0x3f752 <eeprom_write_byte>
		if (theChar == 0)
   3ea70:	01 11       	cpse	r16, r1
   3ea72:	06 c0       	rjmp	.+12     	; 0x3ea80 <main+0x4a6>
		{
			PrintFromPROGMEM(gTextMsg_SPACE, 0);
   3ea74:	60 e0       	ldi	r22, 0x00	; 0
   3ea76:	8b ea       	ldi	r24, 0xAB	; 171
   3ea78:	91 ee       	ldi	r25, 0xE1	; 225
   3ea7a:	0f 94 d1 f1 	call	0x3e3a2	; 0x3e3a2 <PrintFromPROGMEM>
   3ea7e:	03 c0       	rjmp	.+6      	; 0x3ea86 <main+0x4ac>
		}
		else
		{
			sendchar(theChar);
   3ea80:	80 2f       	mov	r24, r16
   3ea82:	0f 94 b6 f1 	call	0x3e36c	; 0x3e36c <sendchar>
		}
		ii++;
   3ea86:	5f ef       	ldi	r21, 0xFF	; 255
   3ea88:	a5 1a       	sub	r10, r21
   3ea8a:	b5 0a       	sbc	r11, r21
   3ea8c:	cf cf       	rjmp	.-98     	; 0x3ea2c <main+0x452>
	PrintFromPROGMEMln(gTextMsg_ReadingEEprom, 0);
	PrintNewLine();
	errorCount	=	0;
	ii			=	0;
#if (FLASHEND > 0x10000)
	while (((theChar = pgm_read_byte_far((uint16_t)gTextMsg_Explorer + ii)) != '*') && (ii < 512))
   3ea8e:	a1 14       	cp	r10, r1
   3ea90:	b2 e0       	ldi	r27, 0x02	; 2
   3ea92:	bb 06       	cpc	r11, r27
   3ea94:	e9 f0       	breq	.+58     	; 0x3ead0 <main+0x4f6>
#else
	while (((theChar = pgm_read_byte_near((uint16_t)gTextMsg_Explorer + ii)) != '*') && (ii < 512))
#endif
	{
		theEEPROMchar	=	eeprom_read_byte((uint8_t *)ii);
   3ea96:	c5 01       	movw	r24, r10
   3ea98:	0f 94 a1 fb 	call	0x3f742	; 0x3f742 <eeprom_read_byte>
   3ea9c:	78 2e       	mov	r7, r24
		if (theEEPROMchar == 0)
   3ea9e:	81 11       	cpse	r24, r1
   3eaa0:	32 c0       	rjmp	.+100    	; 0x3eb06 <main+0x52c>
		{
			PrintFromPROGMEM(gTextMsg_SPACE, 0);
   3eaa2:	60 e0       	ldi	r22, 0x00	; 0
   3eaa4:	8b ea       	ldi	r24, 0xAB	; 171
   3eaa6:	91 ee       	ldi	r25, 0xE1	; 225
   3eaa8:	0f 94 d1 f1 	call	0x3e3a2	; 0x3e3a2 <PrintFromPROGMEM>
		}
		else
		{
			sendchar(theEEPROMchar);
		}
		if (theEEPROMchar != theChar)
   3eaac:	70 16       	cp	r7, r16
   3eaae:	19 f0       	breq	.+6      	; 0x3eab6 <main+0x4dc>
		{
			errorCount++;
   3eab0:	9f ef       	ldi	r25, 0xFF	; 255
   3eab2:	89 1a       	sub	r8, r25
   3eab4:	99 0a       	sbc	r9, r25
		}
		ii++;
   3eab6:	af ef       	ldi	r26, 0xFF	; 255
   3eab8:	aa 1a       	sub	r10, r26
   3eaba:	ba 0a       	sbc	r11, r26
   3eabc:	c5 01       	movw	r24, r10
   3eabe:	87 51       	subi	r24, 0x17	; 23
   3eac0:	9d 41       	sbci	r25, 0x1D	; 29
	PrintFromPROGMEMln(gTextMsg_ReadingEEprom, 0);
	PrintNewLine();
	errorCount	=	0;
	ii			=	0;
#if (FLASHEND > 0x10000)
	while (((theChar = pgm_read_byte_far((uint16_t)gTextMsg_Explorer + ii)) != '*') && (ii < 512))
   3eac2:	a0 e0       	ldi	r26, 0x00	; 0
   3eac4:	b0 e0       	ldi	r27, 0x00	; 0
   3eac6:	ab bf       	out	0x3b, r26	; 59
   3eac8:	fc 01       	movw	r30, r24
   3eaca:	07 91       	elpm	r16, Z+
   3eacc:	0a 32       	cpi	r16, 0x2A	; 42
   3eace:	f9 f6       	brne	.-66     	; 0x3ea8e <main+0x4b4>
		{
			errorCount++;
		}
		ii++;
	}
	PrintNewLine();
   3ead0:	0f 94 e5 f1 	call	0x3e3ca	; 0x3e3ca <PrintNewLine>
	PrintNewLine();
   3ead4:	0f 94 e5 f1 	call	0x3e3ca	; 0x3e3ca <PrintNewLine>
	PrintFromPROGMEM(gTextMsg_EEPROMerrorCnt, 0);
   3ead8:	60 e0       	ldi	r22, 0x00	; 0
   3eada:	88 e8       	ldi	r24, 0x88	; 136
   3eadc:	91 ee       	ldi	r25, 0xE1	; 225
   3eade:	0f 94 d1 f1 	call	0x3e3a2	; 0x3e3a2 <PrintFromPROGMEM>
	PrintDecInt(errorCount, 1);
   3eae2:	61 e0       	ldi	r22, 0x01	; 1
   3eae4:	70 e0       	ldi	r23, 0x00	; 0
   3eae6:	c4 01       	movw	r24, r8
   3eae8:	0f 94 12 f2 	call	0x3e424	; 0x3e424 <PrintDecInt>
	PrintNewLine();
   3eaec:	0f 94 e5 f1 	call	0x3e3ca	; 0x3e3ca <PrintNewLine>
	PrintNewLine();
   3eaf0:	0f 94 e5 f1 	call	0x3e3ca	; 0x3e3ca <PrintNewLine>

	gEepromIndex	=	0;	//*	set index back to zero for next eeprom dump
   3eaf4:	10 92 06 02 	sts	0x0206, r1	; 0x800206 <gEepromIndex>
   3eaf8:	10 92 07 02 	sts	0x0207, r1	; 0x800207 <gEepromIndex+0x1>
   3eafc:	10 92 08 02 	sts	0x0208, r1	; 0x800208 <gEepromIndex+0x2>
   3eb00:	10 92 09 02 	sts	0x0209, r1	; 0x800209 <gEepromIndex+0x3>
   3eb04:	5e ce       	rjmp	.-836    	; 0x3e7c2 <main+0x1e8>
		{
			PrintFromPROGMEM(gTextMsg_SPACE, 0);
		}
		else
		{
			sendchar(theEEPROMchar);
   3eb06:	0f 94 b6 f1 	call	0x3e36c	; 0x3e36c <sendchar>
   3eb0a:	d0 cf       	rjmp	.-96     	; 0x3eaac <main+0x4d2>
				PrintFromPROGMEMln(gTextMsg_HELP_MSG_AT, 2);
				EEPROMtest();
				break;

			case 'B':
				PrintFromPROGMEMln(gTextMsg_HELP_MSG_B, 2);
   3eb0c:	62 e0       	ldi	r22, 0x02	; 2
   3eb0e:	81 e5       	ldi	r24, 0x51	; 81
   3eb10:	91 ee       	ldi	r25, 0xE1	; 225
   3eb12:	0f 94 eb f1 	call	0x3e3d6	; 0x3e3d6 <PrintFromPROGMEMln>


//************************************************************************
static void BlinkLED(void)
{
	PROGLED_DDR		|=	(1<<PROGLED_PIN);
   3eb16:	27 9a       	sbi	0x04, 7	; 4
	PROGLED_PORT	|=	(1<<PROGLED_PIN);	// active high LED ON
   3eb18:	2f 9a       	sbi	0x05, 7	; 5


//************************************************************************
static int	Serial_Available(void)
{
	return(UART_STATUS_REG & (1 << UART_RECEIVE_COMPLETE));	// wait for data
   3eb1a:	80 91 c0 00 	lds	r24, 0x00C0	; 0x8000c0 <__TEXT_REGION_LENGTH__+0x7000c0>
static void BlinkLED(void)
{
	PROGLED_DDR		|=	(1<<PROGLED_PIN);
	PROGLED_PORT	|=	(1<<PROGLED_PIN);	// active high LED ON

	while (!Serial_Available())
   3eb1e:	87 fd       	sbrc	r24, 7
   3eb20:	0c c0       	rjmp	.+24     	; 0x3eb3a <main+0x560>
	{
		PROGLED_PORT	&=	~(1<<PROGLED_PIN);	// turn LED off
   3eb22:	2f 98       	cbi	0x05, 7	; 5
		delay_ms(100);
   3eb24:	84 e6       	ldi	r24, 0x64	; 100
   3eb26:	90 e0       	ldi	r25, 0x00	; 0
   3eb28:	0f 94 c2 f1 	call	0x3e384	; 0x3e384 <delay_ms>
		PROGLED_PORT	|=	(1<<PROGLED_PIN);	// turn LED on
   3eb2c:	2f 9a       	sbi	0x05, 7	; 5
		delay_ms(100);
   3eb2e:	84 e6       	ldi	r24, 0x64	; 100
   3eb30:	90 e0       	ldi	r25, 0x00	; 0
   3eb32:	0f 94 c2 f1 	call	0x3e384	; 0x3e384 <delay_ms>
   3eb36:	f1 cf       	rjmp	.-30     	; 0x3eb1a <main+0x540>
				while (!Serial_Available())
				{
					PORTA	^=	0xff;
					delay_ms(200);
				}
				PORTA	=	0;
   3eb38:	12 b8       	out	0x02, r1	; 2
		PROGLED_PORT	&=	~(1<<PROGLED_PIN);	// turn LED off
		delay_ms(100);
		PROGLED_PORT	|=	(1<<PROGLED_PIN);	// turn LED on
		delay_ms(100);
	}
	recchar();	//	get the char out of the buffer
   3eb3a:	0f 94 46 f2 	call	0x3e48c	; 0x3e48c <recchar>
   3eb3e:	41 ce       	rjmp	.-894    	; 0x3e7c2 <main+0x1e8>
				PrintFromPROGMEMln(gTextMsg_HELP_MSG_B, 2);
				BlinkLED();
				break;

			case 'E':
				PrintFromPROGMEMln(gTextMsg_HELP_MSG_E, 2);
   3eb40:	62 e0       	ldi	r22, 0x02	; 2
   3eb42:	83 e4       	ldi	r24, 0x43	; 67
   3eb44:	91 ee       	ldi	r25, 0xE1	; 225
   3eb46:	0f 94 eb f1 	call	0x3e3d6	; 0x3e3d6 <PrintFromPROGMEMln>
				DumpHex(kDUMP_EEPROM, gEepromIndex, 16);
   3eb4a:	40 91 06 02 	lds	r20, 0x0206	; 0x800206 <gEepromIndex>
   3eb4e:	50 91 07 02 	lds	r21, 0x0207	; 0x800207 <gEepromIndex+0x1>
   3eb52:	60 91 08 02 	lds	r22, 0x0208	; 0x800208 <gEepromIndex+0x2>
   3eb56:	70 91 09 02 	lds	r23, 0x0209	; 0x800209 <gEepromIndex+0x3>
   3eb5a:	81 e0       	ldi	r24, 0x01	; 1
   3eb5c:	0f 94 5a f2 	call	0x3e4b4	; 0x3e4b4 <DumpHex.constprop.0>
				gEepromIndex	+=	256;
   3eb60:	80 91 06 02 	lds	r24, 0x0206	; 0x800206 <gEepromIndex>
   3eb64:	90 91 07 02 	lds	r25, 0x0207	; 0x800207 <gEepromIndex+0x1>
   3eb68:	a0 91 08 02 	lds	r26, 0x0208	; 0x800208 <gEepromIndex+0x2>
   3eb6c:	b0 91 09 02 	lds	r27, 0x0209	; 0x800209 <gEepromIndex+0x3>
   3eb70:	9f 5f       	subi	r25, 0xFF	; 255
   3eb72:	af 4f       	sbci	r26, 0xFF	; 255
   3eb74:	bf 4f       	sbci	r27, 0xFF	; 255
   3eb76:	80 93 06 02 	sts	0x0206, r24	; 0x800206 <gEepromIndex>
   3eb7a:	90 93 07 02 	sts	0x0207, r25	; 0x800207 <gEepromIndex+0x1>
   3eb7e:	a0 93 08 02 	sts	0x0208, r26	; 0x800208 <gEepromIndex+0x2>
   3eb82:	b0 93 09 02 	sts	0x0209, r27	; 0x800209 <gEepromIndex+0x3>
				if (gEepromIndex > E2END)
   3eb86:	81 15       	cp	r24, r1
   3eb88:	90 41       	sbci	r25, 0x10	; 16
   3eb8a:	a1 05       	cpc	r26, r1
   3eb8c:	b1 05       	cpc	r27, r1
   3eb8e:	08 f4       	brcc	.+2      	; 0x3eb92 <main+0x5b8>
   3eb90:	18 ce       	rjmp	.-976    	; 0x3e7c2 <main+0x1e8>
   3eb92:	b0 cf       	rjmp	.-160    	; 0x3eaf4 <main+0x51a>
					gEepromIndex	=	0;
				}
				break;
		
			case 'F':
				PrintFromPROGMEMln(gTextMsg_HELP_MSG_F, 2);
   3eb94:	62 e0       	ldi	r22, 0x02	; 2
   3eb96:	86 e3       	ldi	r24, 0x36	; 54
   3eb98:	91 ee       	ldi	r25, 0xE1	; 225
   3eb9a:	0f 94 eb f1 	call	0x3e3d6	; 0x3e3d6 <PrintFromPROGMEMln>
				DumpHex(kDUMP_FLASH, gFlashIndex, 16);
   3eb9e:	40 91 0a 02 	lds	r20, 0x020A	; 0x80020a <gFlashIndex>
   3eba2:	50 91 0b 02 	lds	r21, 0x020B	; 0x80020b <gFlashIndex+0x1>
   3eba6:	60 91 0c 02 	lds	r22, 0x020C	; 0x80020c <gFlashIndex+0x2>
   3ebaa:	70 91 0d 02 	lds	r23, 0x020D	; 0x80020d <gFlashIndex+0x3>
   3ebae:	80 e0       	ldi	r24, 0x00	; 0
   3ebb0:	0f 94 5a f2 	call	0x3e4b4	; 0x3e4b4 <DumpHex.constprop.0>
				gFlashIndex	+=	256;
   3ebb4:	80 91 0a 02 	lds	r24, 0x020A	; 0x80020a <gFlashIndex>
   3ebb8:	90 91 0b 02 	lds	r25, 0x020B	; 0x80020b <gFlashIndex+0x1>
   3ebbc:	a0 91 0c 02 	lds	r26, 0x020C	; 0x80020c <gFlashIndex+0x2>
   3ebc0:	b0 91 0d 02 	lds	r27, 0x020D	; 0x80020d <gFlashIndex+0x3>
   3ebc4:	9f 5f       	subi	r25, 0xFF	; 255
   3ebc6:	af 4f       	sbci	r26, 0xFF	; 255
   3ebc8:	bf 4f       	sbci	r27, 0xFF	; 255
   3ebca:	80 93 0a 02 	sts	0x020A, r24	; 0x80020a <gFlashIndex>
   3ebce:	90 93 0b 02 	sts	0x020B, r25	; 0x80020b <gFlashIndex+0x1>
   3ebd2:	a0 93 0c 02 	sts	0x020C, r26	; 0x80020c <gFlashIndex+0x2>
   3ebd6:	b0 93 0d 02 	sts	0x020D, r27	; 0x80020d <gFlashIndex+0x3>
   3ebda:	f3 cd       	rjmp	.-1050   	; 0x3e7c2 <main+0x1e8>
				break;

			case 'H':
				PrintFromPROGMEMln(gTextMsg_HELP_MSG_H, 2);
   3ebdc:	62 e0       	ldi	r22, 0x02	; 2
   3ebde:	8f e2       	ldi	r24, 0x2F	; 47
   3ebe0:	91 ee       	ldi	r25, 0xE1	; 225
   3ebe2:	0f 94 eb f1 	call	0x3e3d6	; 0x3e3d6 <PrintFromPROGMEMln>


//*******************************************************************
static void PrintHelp(void)
{
	PrintFromPROGMEMln(gTextMsg_HELP_MSG_0, 0);
   3ebe6:	60 e0       	ldi	r22, 0x00	; 0
   3ebe8:	87 e7       	ldi	r24, 0x77	; 119
   3ebea:	91 ee       	ldi	r25, 0xE1	; 225
   3ebec:	0f 94 eb f1 	call	0x3e3d6	; 0x3e3d6 <PrintFromPROGMEMln>
	PrintFromPROGMEMln(gTextMsg_HELP_MSG_QM, 0);
   3ebf0:	60 e0       	ldi	r22, 0x00	; 0
   3ebf2:	8b e6       	ldi	r24, 0x6B	; 107
   3ebf4:	91 ee       	ldi	r25, 0xE1	; 225
   3ebf6:	0f 94 eb f1 	call	0x3e3d6	; 0x3e3d6 <PrintFromPROGMEMln>
	PrintFromPROGMEMln(gTextMsg_HELP_MSG_AT, 0);
   3ebfa:	60 e0       	ldi	r22, 0x00	; 0
   3ebfc:	8d e5       	ldi	r24, 0x5D	; 93
   3ebfe:	91 ee       	ldi	r25, 0xE1	; 225
   3ec00:	0f 94 eb f1 	call	0x3e3d6	; 0x3e3d6 <PrintFromPROGMEMln>
	PrintFromPROGMEMln(gTextMsg_HELP_MSG_B, 0);
   3ec04:	60 e0       	ldi	r22, 0x00	; 0
   3ec06:	81 e5       	ldi	r24, 0x51	; 81
   3ec08:	91 ee       	ldi	r25, 0xE1	; 225
   3ec0a:	0f 94 eb f1 	call	0x3e3d6	; 0x3e3d6 <PrintFromPROGMEMln>
	PrintFromPROGMEMln(gTextMsg_HELP_MSG_E, 0);
   3ec0e:	60 e0       	ldi	r22, 0x00	; 0
   3ec10:	83 e4       	ldi	r24, 0x43	; 67
   3ec12:	91 ee       	ldi	r25, 0xE1	; 225
   3ec14:	0f 94 eb f1 	call	0x3e3d6	; 0x3e3d6 <PrintFromPROGMEMln>
	PrintFromPROGMEMln(gTextMsg_HELP_MSG_F, 0);
   3ec18:	60 e0       	ldi	r22, 0x00	; 0
   3ec1a:	86 e3       	ldi	r24, 0x36	; 54
   3ec1c:	91 ee       	ldi	r25, 0xE1	; 225
   3ec1e:	0f 94 eb f1 	call	0x3e3d6	; 0x3e3d6 <PrintFromPROGMEMln>
	PrintFromPROGMEMln(gTextMsg_HELP_MSG_H, 0);
   3ec22:	60 e0       	ldi	r22, 0x00	; 0
   3ec24:	8f e2       	ldi	r24, 0x2F	; 47
   3ec26:	91 ee       	ldi	r25, 0xE1	; 225
   3ec28:	0f 94 eb f1 	call	0x3e3d6	; 0x3e3d6 <PrintFromPROGMEMln>

	PrintFromPROGMEMln(gTextMsg_HELP_MSG_L, 0);
   3ec2c:	60 e0       	ldi	r22, 0x00	; 0
   3ec2e:	8e e1       	ldi	r24, 0x1E	; 30
   3ec30:	91 ee       	ldi	r25, 0xE1	; 225
   3ec32:	0f 94 eb f1 	call	0x3e3d6	; 0x3e3d6 <PrintFromPROGMEMln>
	PrintFromPROGMEMln(gTextMsg_HELP_MSG_Q, 0);
   3ec36:	60 e0       	ldi	r22, 0x00	; 0
   3ec38:	87 e1       	ldi	r24, 0x17	; 23
   3ec3a:	91 ee       	ldi	r25, 0xE1	; 225
   3ec3c:	0f 94 eb f1 	call	0x3e3d6	; 0x3e3d6 <PrintFromPROGMEMln>
	PrintFromPROGMEMln(gTextMsg_HELP_MSG_R, 0);
   3ec40:	60 e0       	ldi	r22, 0x00	; 0
   3ec42:	8c e0       	ldi	r24, 0x0C	; 12
   3ec44:	91 ee       	ldi	r25, 0xE1	; 225
   3ec46:	0f 94 eb f1 	call	0x3e3d6	; 0x3e3d6 <PrintFromPROGMEMln>
	PrintFromPROGMEMln(gTextMsg_HELP_MSG_V, 0);
   3ec4a:	60 e0       	ldi	r22, 0x00	; 0
   3ec4c:	83 ef       	ldi	r24, 0xF3	; 243
   3ec4e:	90 ee       	ldi	r25, 0xE0	; 224
   3ec50:	0f 94 eb f1 	call	0x3e3d6	; 0x3e3d6 <PrintFromPROGMEMln>
	PrintFromPROGMEMln(gTextMsg_HELP_MSG_Y, 0);
   3ec54:	60 e0       	ldi	r22, 0x00	; 0
   3ec56:	86 ee       	ldi	r24, 0xE6	; 230
   3ec58:	90 ee       	ldi	r25, 0xE0	; 224
   3ec5a:	99 c2       	rjmp	.+1330   	; 0x3f18e <main+0xbb4>
				PrintFromPROGMEMln(gTextMsg_HELP_MSG_L, 2);
				ListAvailablePorts();
				break;

			case 'Q':
				PrintFromPROGMEMln(gTextMsg_HELP_MSG_Q, 2);
   3ec5c:	62 e0       	ldi	r22, 0x02	; 2
   3ec5e:	87 e1       	ldi	r24, 0x17	; 23
   3ec60:	91 ee       	ldi	r25, 0xE1	; 225
   3ec62:	0f 94 eb f1 	call	0x3e3d6	; 0x3e3d6 <PrintFromPROGMEMln>
				{
					exPointCntr++;
					if (exPointCntr == 3)
					{
						RunMonitor();
						exPointCntr		=	0;	//	reset back to zero so we dont get in an endless loop
   3ec66:	a1 2c       	mov	r10, r1
   3ec68:	b1 2c       	mov	r11, r1
						isLeave			=	1;
   3ec6a:	99 24       	eor	r9, r9
   3ec6c:	93 94       	inc	r9
   3ec6e:	f5 c2       	rjmp	.+1514   	; 0x3f25a <main+0xc80>
				DumpHex(kDUMP_RAM, gRamIndex, 16);
				gRamIndex	+=	256;
				break;

			case 'V':
				PrintFromPROGMEMln(gTextMsg_HELP_MSG_V, 2);
   3ec70:	62 e0       	ldi	r22, 0x02	; 2
   3ec72:	83 ef       	ldi	r24, 0xF3	; 243
   3ec74:	90 ee       	ldi	r25, 0xE0	; 224
   3ec76:	0f 94 eb f1 	call	0x3e3d6	; 0x3e3d6 <PrintFromPROGMEMln>
	long		stringPointer;
#endif

	myMemoryPtr		=	0;
	vectorIndex		=	0;
	PrintFromPROGMEMln(gTextMsg_CPU_Name, 0);
   3ec7a:	60 e0       	ldi	r22, 0x00	; 0
   3ec7c:	8a e0       	ldi	r24, 0x0A	; 10
   3ec7e:	93 ee       	ldi	r25, 0xE3	; 227
   3ec80:	0f 94 eb f1 	call	0x3e3d6	; 0x3e3d6 <PrintFromPROGMEMln>
	PrintFromPROGMEMln(gTextMsg_VECTOR_HEADER, 0);
   3ec84:	60 e0       	ldi	r22, 0x00	; 0
   3ec86:	82 ef       	ldi	r24, 0xF2	; 242
   3ec88:	91 ee       	ldi	r25, 0xE1	; 225
   3ec8a:	0f 94 eb f1 	call	0x3e3d6	; 0x3e3d6 <PrintFromPROGMEMln>
#if defined(_INTERRUPT_NAMES_DEFINED_)
	long		stringPointer;
#endif

	myMemoryPtr		=	0;
	vectorIndex		=	0;
   3ec8e:	ce 5d       	subi	r28, 0xDE	; 222
   3ec90:	de 4f       	sbci	r29, 0xFE	; 254
   3ec92:	19 82       	std	Y+1, r1	; 0x01
   3ec94:	18 82       	st	Y, r1
   3ec96:	c2 52       	subi	r28, 0x22	; 34
   3ec98:	d1 40       	sbci	r29, 0x01	; 1
unsigned long	absoluteAddr;
#if defined(_INTERRUPT_NAMES_DEFINED_)
	long		stringPointer;
#endif

	myMemoryPtr		=	0;
   3ec9a:	41 2c       	mov	r4, r1
   3ec9c:	51 2c       	mov	r5, r1
   3ec9e:	32 01       	movw	r6, r4
	PrintFromPROGMEMln(gTextMsg_VECTOR_HEADER, 0);
	//					 V#   ADDR   op code
	//					  1 - 0000 = C3 BB 00 00 rjmp 03BB >000776 RESET
	while (vectorIndex < kInterruptVectorCount)
	{
		wordMemoryAddress	=	myMemoryPtr / 2;
   3eca0:	a3 01       	movw	r20, r6
   3eca2:	92 01       	movw	r18, r4
   3eca4:	56 95       	lsr	r21
   3eca6:	47 95       	ror	r20
   3eca8:	37 95       	ror	r19
   3ecaa:	27 95       	ror	r18
   3ecac:	c2 5e       	subi	r28, 0xE2	; 226
   3ecae:	de 4f       	sbci	r29, 0xFE	; 254
   3ecb0:	28 83       	st	Y, r18
   3ecb2:	39 83       	std	Y+1, r19	; 0x01
   3ecb4:	4a 83       	std	Y+2, r20	; 0x02
   3ecb6:	5b 83       	std	Y+3, r21	; 0x03
   3ecb8:	ce 51       	subi	r28, 0x1E	; 30
   3ecba:	d1 40       	sbci	r29, 0x01	; 1
		//					 01 - 0000 = 12 34
		PrintDecInt(vectorIndex + 1, 2);
   3ecbc:	ce 5d       	subi	r28, 0xDE	; 222
   3ecbe:	de 4f       	sbci	r29, 0xFE	; 254
   3ecc0:	48 81       	ld	r20, Y
   3ecc2:	59 81       	ldd	r21, Y+1	; 0x01
   3ecc4:	c2 52       	subi	r28, 0x22	; 34
   3ecc6:	d1 40       	sbci	r29, 0x01	; 1
   3ecc8:	4f 5f       	subi	r20, 0xFF	; 255
   3ecca:	5f 4f       	sbci	r21, 0xFF	; 255
   3eccc:	ce 5d       	subi	r28, 0xDE	; 222
   3ecce:	de 4f       	sbci	r29, 0xFE	; 254
   3ecd0:	59 83       	std	Y+1, r21	; 0x01
   3ecd2:	48 83       	st	Y, r20
   3ecd4:	c2 52       	subi	r28, 0x22	; 34
   3ecd6:	d1 40       	sbci	r29, 0x01	; 1
   3ecd8:	62 e0       	ldi	r22, 0x02	; 2
   3ecda:	70 e0       	ldi	r23, 0x00	; 0
   3ecdc:	ca 01       	movw	r24, r20
   3ecde:	0f 94 12 f2 	call	0x3e424	; 0x3e424 <PrintDecInt>
		sendchar(0x20);
   3ece2:	80 e2       	ldi	r24, 0x20	; 32
   3ece4:	0f 94 b6 f1 	call	0x3e36c	; 0x3e36c <sendchar>
		sendchar('-');
   3ece8:	8d e2       	ldi	r24, 0x2D	; 45
   3ecea:	0f 94 b6 f1 	call	0x3e36c	; 0x3e36c <sendchar>
		sendchar(0x20);
   3ecee:	80 e2       	ldi	r24, 0x20	; 32
   3ecf0:	0f 94 b6 f1 	call	0x3e36c	; 0x3e36c <sendchar>
		PrintHexByte((wordMemoryAddress >> 8) & 0x00ff);
   3ecf4:	80 e0       	ldi	r24, 0x00	; 0
   3ecf6:	0f 94 fb f1 	call	0x3e3f6	; 0x3e3f6 <PrintHexByte>
		PrintHexByte((wordMemoryAddress) & 0x00ff);
   3ecfa:	c2 5e       	subi	r28, 0xE2	; 226
   3ecfc:	de 4f       	sbci	r29, 0xFE	; 254
   3ecfe:	88 81       	ld	r24, Y
   3ed00:	ce 51       	subi	r28, 0x1E	; 30
   3ed02:	d1 40       	sbci	r29, 0x01	; 1
   3ed04:	0f 94 fb f1 	call	0x3e3f6	; 0x3e3f6 <PrintHexByte>
		sendchar(0x20);
   3ed08:	80 e2       	ldi	r24, 0x20	; 32
   3ed0a:	0f 94 b6 f1 	call	0x3e36c	; 0x3e36c <sendchar>
		sendchar('=');
   3ed0e:	8d e3       	ldi	r24, 0x3D	; 61
   3ed10:	0f 94 b6 f1 	call	0x3e36c	; 0x3e36c <sendchar>
		sendchar(0x20);
   3ed14:	80 e2       	ldi	r24, 0x20	; 32
   3ed16:	0f 94 b6 f1 	call	0x3e36c	; 0x3e36c <sendchar>

	
		//*	the AVR is LITTLE ENDIAN, swap the byte order
	#if (FLASHEND > 0x10000)
		byte1	=	pgm_read_byte_far(myMemoryPtr++);
   3ed1a:	6b be       	out	0x3b, r6	; 59
   3ed1c:	f2 01       	movw	r30, r4
   3ed1e:	a7 90       	elpm	r10, Z+
   3ed20:	d3 01       	movw	r26, r6
   3ed22:	c2 01       	movw	r24, r4
   3ed24:	01 96       	adiw	r24, 0x01	; 1
   3ed26:	a1 1d       	adc	r26, r1
   3ed28:	b1 1d       	adc	r27, r1
		byte2	=	pgm_read_byte_far(myMemoryPtr++);
   3ed2a:	ab bf       	out	0x3b, r26	; 59
   3ed2c:	fc 01       	movw	r30, r24
   3ed2e:	97 90       	elpm	r9, Z+
   3ed30:	d3 01       	movw	r26, r6
   3ed32:	c2 01       	movw	r24, r4
   3ed34:	02 96       	adiw	r24, 0x02	; 2
   3ed36:	a1 1d       	adc	r26, r1
   3ed38:	b1 1d       	adc	r27, r1
		byte3	=	pgm_read_byte_far(myMemoryPtr++);
   3ed3a:	ab bf       	out	0x3b, r26	; 59
   3ed3c:	fc 01       	movw	r30, r24
   3ed3e:	b7 90       	elpm	r11, Z+
		byte4	=	pgm_read_byte_far(myMemoryPtr++);
   3ed40:	d3 01       	movw	r26, r6
   3ed42:	c2 01       	movw	r24, r4
   3ed44:	03 96       	adiw	r24, 0x03	; 3
   3ed46:	a1 1d       	adc	r26, r1
   3ed48:	b1 1d       	adc	r27, r1
   3ed4a:	ab bf       	out	0x3b, r26	; 59
   3ed4c:	fc 01       	movw	r30, r24
   3ed4e:	07 91       	elpm	r16, Z+
   3ed50:	54 e0       	ldi	r21, 0x04	; 4
   3ed52:	45 0e       	add	r4, r21
   3ed54:	51 1c       	adc	r5, r1
   3ed56:	61 1c       	adc	r6, r1
   3ed58:	71 1c       	adc	r7, r1

	
		//*	the AVR is LITTLE ENDIAN, swap the byte order
	#if (FLASHEND > 0x10000)
		byte1	=	pgm_read_byte_far(myMemoryPtr++);
		byte2	=	pgm_read_byte_far(myMemoryPtr++);
   3ed5a:	49 2d       	mov	r20, r9
   3ed5c:	50 e0       	ldi	r21, 0x00	; 0
   3ed5e:	60 e0       	ldi	r22, 0x00	; 0
   3ed60:	70 e0       	ldi	r23, 0x00	; 0
		byte1	=	pgm_read_byte_near(myMemoryPtr++);
		byte2	=	pgm_read_byte_near(myMemoryPtr++);
		byte3	=	pgm_read_byte_near(myMemoryPtr++);
		byte4	=	pgm_read_byte_near(myMemoryPtr++);
	#endif
		word1	=	(byte2 << 8) + byte1;
   3ed62:	76 2f       	mov	r23, r22
   3ed64:	65 2f       	mov	r22, r21
   3ed66:	54 2f       	mov	r21, r20
   3ed68:	44 27       	eor	r20, r20
   3ed6a:	4a 0d       	add	r20, r10
   3ed6c:	51 1d       	adc	r21, r1
   3ed6e:	61 1d       	adc	r22, r1
   3ed70:	71 1d       	adc	r23, r1
		word2	=	(byte4 << 8) + byte3;


		PrintHexByte(byte2);
   3ed72:	89 2d       	mov	r24, r9
   3ed74:	c3 5d       	subi	r28, 0xD3	; 211
   3ed76:	de 4f       	sbci	r29, 0xFE	; 254
   3ed78:	48 83       	st	Y, r20
   3ed7a:	cd 52       	subi	r28, 0x2D	; 45
   3ed7c:	d1 40       	sbci	r29, 0x01	; 1
   3ed7e:	c2 5d       	subi	r28, 0xD2	; 210
   3ed80:	de 4f       	sbci	r29, 0xFE	; 254
   3ed82:	58 83       	st	Y, r21
   3ed84:	ce 52       	subi	r28, 0x2E	; 46
   3ed86:	d1 40       	sbci	r29, 0x01	; 1
   3ed88:	c1 5d       	subi	r28, 0xD1	; 209
   3ed8a:	de 4f       	sbci	r29, 0xFE	; 254
   3ed8c:	68 83       	st	Y, r22
   3ed8e:	cf 52       	subi	r28, 0x2F	; 47
   3ed90:	d1 40       	sbci	r29, 0x01	; 1
   3ed92:	c0 5d       	subi	r28, 0xD0	; 208
   3ed94:	de 4f       	sbci	r29, 0xFE	; 254
   3ed96:	78 83       	st	Y, r23
   3ed98:	c0 53       	subi	r28, 0x30	; 48
   3ed9a:	d1 40       	sbci	r29, 0x01	; 1
   3ed9c:	0f 94 fb f1 	call	0x3e3f6	; 0x3e3f6 <PrintHexByte>
		sendchar(0x20);
   3eda0:	80 e2       	ldi	r24, 0x20	; 32
   3eda2:	0f 94 b6 f1 	call	0x3e36c	; 0x3e36c <sendchar>
		PrintHexByte(byte1);
   3eda6:	8a 2d       	mov	r24, r10
   3eda8:	0f 94 fb f1 	call	0x3e3f6	; 0x3e3f6 <PrintHexByte>
		sendchar(0x20);
   3edac:	80 e2       	ldi	r24, 0x20	; 32
   3edae:	0f 94 b6 f1 	call	0x3e36c	; 0x3e36c <sendchar>
		PrintHexByte(byte4);
   3edb2:	80 2f       	mov	r24, r16
   3edb4:	0f 94 fb f1 	call	0x3e3f6	; 0x3e3f6 <PrintHexByte>
		sendchar(0x20);
   3edb8:	80 e2       	ldi	r24, 0x20	; 32
   3edba:	0f 94 b6 f1 	call	0x3e36c	; 0x3e36c <sendchar>
		PrintHexByte(byte3);
   3edbe:	8b 2d       	mov	r24, r11
   3edc0:	0f 94 fb f1 	call	0x3e3f6	; 0x3e3f6 <PrintHexByte>
		sendchar(0x20);
   3edc4:	80 e2       	ldi	r24, 0x20	; 32
   3edc6:	0f 94 b6 f1 	call	0x3e36c	; 0x3e36c <sendchar>
	
		if (word1 == 0xffff)
   3edca:	c3 5d       	subi	r28, 0xD3	; 211
   3edcc:	de 4f       	sbci	r29, 0xFE	; 254
   3edce:	48 81       	ld	r20, Y
   3edd0:	cd 52       	subi	r28, 0x2D	; 45
   3edd2:	d1 40       	sbci	r29, 0x01	; 1
   3edd4:	c2 5d       	subi	r28, 0xD2	; 210
   3edd6:	de 4f       	sbci	r29, 0xFE	; 254
   3edd8:	58 81       	ld	r21, Y
   3edda:	ce 52       	subi	r28, 0x2E	; 46
   3eddc:	d1 40       	sbci	r29, 0x01	; 1
   3edde:	c1 5d       	subi	r28, 0xD1	; 209
   3ede0:	de 4f       	sbci	r29, 0xFE	; 254
   3ede2:	68 81       	ld	r22, Y
   3ede4:	cf 52       	subi	r28, 0x2F	; 47
   3ede6:	d1 40       	sbci	r29, 0x01	; 1
   3ede8:	c0 5d       	subi	r28, 0xD0	; 208
   3edea:	de 4f       	sbci	r29, 0xFE	; 254
   3edec:	78 81       	ld	r23, Y
   3edee:	c0 53       	subi	r28, 0x30	; 48
   3edf0:	d1 40       	sbci	r29, 0x01	; 1
   3edf2:	4f 3f       	cpi	r20, 0xFF	; 255
   3edf4:	8f ef       	ldi	r24, 0xFF	; 255
   3edf6:	58 07       	cpc	r21, r24
   3edf8:	61 05       	cpc	r22, r1
   3edfa:	71 05       	cpc	r23, r1
   3edfc:	31 f4       	brne	.+12     	; 0x3ee0a <main+0x830>
		{
			PrintFromPROGMEM(gTextMsg_noVector, 0);
   3edfe:	60 e0       	ldi	r22, 0x00	; 0
   3ee00:	88 ee       	ldi	r24, 0xE8	; 232
   3ee02:	91 ee       	ldi	r25, 0xE1	; 225
   3ee04:	0f 94 d1 f1 	call	0x3e3a2	; 0x3e3a2 <PrintFromPROGMEM>
   3ee08:	b8 c0       	rjmp	.+368    	; 0x3ef7a <main+0x9a0>
		}
		else if ((word1 & 0xc000) == 0xc000)
   3ee0a:	db 01       	movw	r26, r22
   3ee0c:	ca 01       	movw	r24, r20
   3ee0e:	88 27       	eor	r24, r24
   3ee10:	90 7c       	andi	r25, 0xC0	; 192
   3ee12:	aa 27       	eor	r26, r26
   3ee14:	bb 27       	eor	r27, r27
   3ee16:	81 15       	cp	r24, r1
   3ee18:	90 4c       	sbci	r25, 0xC0	; 192
   3ee1a:	a1 05       	cpc	r26, r1
   3ee1c:	b1 05       	cpc	r27, r1
   3ee1e:	99 f5       	brne	.+102    	; 0x3ee86 <main+0x8ac>
		{
			//*	rjmp instruction
			realitiveAddr	=	word1 & 0x3FFF;
   3ee20:	4a 01       	movw	r8, r20
   3ee22:	5b 01       	movw	r10, r22
   3ee24:	ff e3       	ldi	r31, 0x3F	; 63
   3ee26:	9f 22       	and	r9, r31
   3ee28:	aa 24       	eor	r10, r10
   3ee2a:	bb 24       	eor	r11, r11
			absoluteAddr	=	wordMemoryAddress + realitiveAddr;	//*	add the offset to the current address
   3ee2c:	c2 5e       	subi	r28, 0xE2	; 226
   3ee2e:	de 4f       	sbci	r29, 0xFE	; 254
   3ee30:	88 81       	ld	r24, Y
   3ee32:	99 81       	ldd	r25, Y+1	; 0x01
   3ee34:	aa 81       	ldd	r26, Y+2	; 0x02
   3ee36:	bb 81       	ldd	r27, Y+3	; 0x03
   3ee38:	ce 51       	subi	r28, 0x1E	; 30
   3ee3a:	d1 40       	sbci	r29, 0x01	; 1
   3ee3c:	88 0d       	add	r24, r8
   3ee3e:	99 1d       	adc	r25, r9
   3ee40:	aa 1d       	adc	r26, r10
   3ee42:	bb 1d       	adc	r27, r11
			absoluteAddr	=	absoluteAddr << 1;					//*	multiply by 2 for byte address
   3ee44:	9c 01       	movw	r18, r24
   3ee46:	ad 01       	movw	r20, r26
   3ee48:	22 0f       	add	r18, r18
   3ee4a:	33 1f       	adc	r19, r19
   3ee4c:	44 1f       	adc	r20, r20
   3ee4e:	55 1f       	adc	r21, r21
   3ee50:	c2 5e       	subi	r28, 0xE2	; 226
   3ee52:	de 4f       	sbci	r29, 0xFE	; 254
   3ee54:	28 83       	st	Y, r18
   3ee56:	39 83       	std	Y+1, r19	; 0x01
   3ee58:	4a 83       	std	Y+2, r20	; 0x02
   3ee5a:	5b 83       	std	Y+3, r21	; 0x03
   3ee5c:	ce 51       	subi	r28, 0x1E	; 30
   3ee5e:	d1 40       	sbci	r29, 0x01	; 1

			PrintFromPROGMEM(gTextMsg_rjmp, 0);
   3ee60:	60 e0       	ldi	r22, 0x00	; 0
   3ee62:	81 ee       	ldi	r24, 0xE1	; 225
   3ee64:	91 ee       	ldi	r25, 0xE1	; 225
   3ee66:	0f 94 d1 f1 	call	0x3e3a2	; 0x3e3a2 <PrintFromPROGMEM>
			PrintHexByte((realitiveAddr >> 8) & 0x00ff);
   3ee6a:	89 2d       	mov	r24, r9
   3ee6c:	0f 94 fb f1 	call	0x3e3f6	; 0x3e3f6 <PrintHexByte>
			PrintHexByte((realitiveAddr) & 0x00ff);
   3ee70:	88 2d       	mov	r24, r8
   3ee72:	0f 94 fb f1 	call	0x3e3f6	; 0x3e3f6 <PrintHexByte>
			sendchar(0x20);
   3ee76:	80 e2       	ldi	r24, 0x20	; 32
   3ee78:	0f 94 b6 f1 	call	0x3e36c	; 0x3e36c <sendchar>
			sendchar('>');
   3ee7c:	8e e3       	ldi	r24, 0x3E	; 62
   3ee7e:	0f 94 b6 f1 	call	0x3e36c	; 0x3e36c <sendchar>
			PrintHexByte((absoluteAddr >> 16) & 0x00ff);
   3ee82:	80 e0       	ldi	r24, 0x00	; 0
   3ee84:	6a c0       	rjmp	.+212    	; 0x3ef5a <main+0x980>
			PrintHexByte((absoluteAddr >> 8) & 0x00ff);
			PrintHexByte((absoluteAddr) & 0x00ff);
	
		}
		else if ((word1 & 0xfE0E) == 0x940c)
   3ee86:	4e 70       	andi	r20, 0x0E	; 14
   3ee88:	5e 7f       	andi	r21, 0xFE	; 254
   3ee8a:	66 27       	eor	r22, r22
   3ee8c:	77 27       	eor	r23, r23
   3ee8e:	4c 30       	cpi	r20, 0x0C	; 12
   3ee90:	54 49       	sbci	r21, 0x94	; 148
   3ee92:	61 05       	cpc	r22, r1
   3ee94:	71 05       	cpc	r23, r1
   3ee96:	09 f0       	breq	.+2      	; 0x3ee9a <main+0x8c0>
   3ee98:	70 c0       	rjmp	.+224    	; 0x3ef7a <main+0x9a0>
		//*	the AVR is LITTLE ENDIAN, swap the byte order
	#if (FLASHEND > 0x10000)
		byte1	=	pgm_read_byte_far(myMemoryPtr++);
		byte2	=	pgm_read_byte_far(myMemoryPtr++);
		byte3	=	pgm_read_byte_far(myMemoryPtr++);
		byte4	=	pgm_read_byte_far(myMemoryPtr++);
   3ee9a:	80 2f       	mov	r24, r16
   3ee9c:	90 e0       	ldi	r25, 0x00	; 0
   3ee9e:	a0 e0       	ldi	r26, 0x00	; 0
   3eea0:	b0 e0       	ldi	r27, 0x00	; 0
		byte2	=	pgm_read_byte_near(myMemoryPtr++);
		byte3	=	pgm_read_byte_near(myMemoryPtr++);
		byte4	=	pgm_read_byte_near(myMemoryPtr++);
	#endif
		word1	=	(byte2 << 8) + byte1;
		word2	=	(byte4 << 8) + byte3;
   3eea2:	ba 2f       	mov	r27, r26
   3eea4:	a9 2f       	mov	r26, r25
   3eea6:	98 2f       	mov	r25, r24
   3eea8:	88 27       	eor	r24, r24
   3eeaa:	8b 0d       	add	r24, r11
   3eeac:	91 1d       	adc	r25, r1
   3eeae:	a1 1d       	adc	r26, r1
   3eeb0:	b1 1d       	adc	r27, r1
	
		}
		else if ((word1 & 0xfE0E) == 0x940c)
		{
			//*	jmp instruction, this is REALLY complicated, refer to the instruction manual (JMP)
			myFullAddress	=	((byte1 & 0x01) << 16) +
   3eeb2:	4a 2d       	mov	r20, r10
   3eeb4:	41 70       	andi	r20, 0x01	; 1
   3eeb6:	50 e0       	ldi	r21, 0x00	; 0
   3eeb8:	60 e0       	ldi	r22, 0x00	; 0
   3eeba:	70 e0       	ldi	r23, 0x00	; 0
   3eebc:	ba 01       	movw	r22, r20
   3eebe:	55 27       	eor	r21, r21
   3eec0:	44 27       	eor	r20, r20
   3eec2:	48 0f       	add	r20, r24
   3eec4:	59 1f       	adc	r21, r25
   3eec6:	6a 1f       	adc	r22, r26
   3eec8:	7b 1f       	adc	r23, r27
								((byte1 & 0xf0) << 17) +
   3eeca:	8a 2d       	mov	r24, r10
   3eecc:	80 7f       	andi	r24, 0xF0	; 240
   3eece:	90 e0       	ldi	r25, 0x00	; 0
   3eed0:	a0 e0       	ldi	r26, 0x00	; 0
   3eed2:	b0 e0       	ldi	r27, 0x00	; 0
   3eed4:	f1 e1       	ldi	r31, 0x11	; 17
   3eed6:	88 0f       	add	r24, r24
   3eed8:	99 1f       	adc	r25, r25
   3eeda:	aa 1f       	adc	r26, r26
   3eedc:	bb 1f       	adc	r27, r27
   3eede:	fa 95       	dec	r31
   3eee0:	d1 f7       	brne	.-12     	; 0x3eed6 <main+0x8fc>
   3eee2:	84 0f       	add	r24, r20
   3eee4:	95 1f       	adc	r25, r21
   3eee6:	a6 1f       	adc	r26, r22
   3eee8:	b7 1f       	adc	r27, r23
								((byte2 & 0x01) << 21) +
   3eeea:	29 2d       	mov	r18, r9
   3eeec:	21 70       	andi	r18, 0x01	; 1
   3eeee:	82 2e       	mov	r8, r18
   3eef0:	91 2c       	mov	r9, r1
   3eef2:	a1 2c       	mov	r10, r1
   3eef4:	b1 2c       	mov	r11, r1
   3eef6:	05 e1       	ldi	r16, 0x15	; 21
   3eef8:	88 0c       	add	r8, r8
   3eefa:	99 1c       	adc	r9, r9
   3eefc:	aa 1c       	adc	r10, r10
   3eefe:	bb 1c       	adc	r11, r11
   3ef00:	0a 95       	dec	r16
   3ef02:	d1 f7       	brne	.-12     	; 0x3eef8 <main+0x91e>
	
		}
		else if ((word1 & 0xfE0E) == 0x940c)
		{
			//*	jmp instruction, this is REALLY complicated, refer to the instruction manual (JMP)
			myFullAddress	=	((byte1 & 0x01) << 16) +
   3ef04:	88 0e       	add	r8, r24
   3ef06:	99 1e       	adc	r9, r25
   3ef08:	aa 1e       	adc	r10, r26
   3ef0a:	bb 1e       	adc	r11, r27
								((byte1 & 0xf0) << 17) +
								((byte2 & 0x01) << 21) +
								word2;
							
			absoluteAddr	=	myFullAddress << 1;
   3ef0c:	a5 01       	movw	r20, r10
   3ef0e:	94 01       	movw	r18, r8
   3ef10:	22 0f       	add	r18, r18
   3ef12:	33 1f       	adc	r19, r19
   3ef14:	44 1f       	adc	r20, r20
   3ef16:	55 1f       	adc	r21, r21
   3ef18:	c2 5e       	subi	r28, 0xE2	; 226
   3ef1a:	de 4f       	sbci	r29, 0xFE	; 254
   3ef1c:	28 83       	st	Y, r18
   3ef1e:	39 83       	std	Y+1, r19	; 0x01
   3ef20:	4a 83       	std	Y+2, r20	; 0x02
   3ef22:	5b 83       	std	Y+3, r21	; 0x03
   3ef24:	ce 51       	subi	r28, 0x1E	; 30
   3ef26:	d1 40       	sbci	r29, 0x01	; 1
							
			PrintFromPROGMEM(gTextMsg_jmp, 0);
   3ef28:	60 e0       	ldi	r22, 0x00	; 0
   3ef2a:	8c ed       	ldi	r24, 0xDC	; 220
   3ef2c:	91 ee       	ldi	r25, 0xE1	; 225
   3ef2e:	0f 94 d1 f1 	call	0x3e3a2	; 0x3e3a2 <PrintFromPROGMEM>
			PrintHexByte((myFullAddress >> 16) & 0x00ff);
   3ef32:	8a 2d       	mov	r24, r10
   3ef34:	0f 94 fb f1 	call	0x3e3f6	; 0x3e3f6 <PrintHexByte>
			PrintHexByte((myFullAddress >> 8) & 0x00ff);
   3ef38:	89 2d       	mov	r24, r9
   3ef3a:	0f 94 fb f1 	call	0x3e3f6	; 0x3e3f6 <PrintHexByte>
			PrintHexByte((myFullAddress) & 0x00ff);
   3ef3e:	88 2d       	mov	r24, r8
   3ef40:	0f 94 fb f1 	call	0x3e3f6	; 0x3e3f6 <PrintHexByte>
			sendchar(0x20);
   3ef44:	80 e2       	ldi	r24, 0x20	; 32
   3ef46:	0f 94 b6 f1 	call	0x3e36c	; 0x3e36c <sendchar>
			sendchar('>');
   3ef4a:	8e e3       	ldi	r24, 0x3E	; 62
   3ef4c:	0f 94 b6 f1 	call	0x3e36c	; 0x3e36c <sendchar>
			PrintHexByte((absoluteAddr >> 16) & 0x00ff);
   3ef50:	c0 5e       	subi	r28, 0xE0	; 224
   3ef52:	de 4f       	sbci	r29, 0xFE	; 254
   3ef54:	88 81       	ld	r24, Y
   3ef56:	c0 52       	subi	r28, 0x20	; 32
   3ef58:	d1 40       	sbci	r29, 0x01	; 1
   3ef5a:	0f 94 fb f1 	call	0x3e3f6	; 0x3e3f6 <PrintHexByte>
			PrintHexByte((absoluteAddr >> 8) & 0x00ff);
   3ef5e:	c1 5e       	subi	r28, 0xE1	; 225
   3ef60:	de 4f       	sbci	r29, 0xFE	; 254
   3ef62:	88 81       	ld	r24, Y
   3ef64:	cf 51       	subi	r28, 0x1F	; 31
   3ef66:	d1 40       	sbci	r29, 0x01	; 1
   3ef68:	0f 94 fb f1 	call	0x3e3f6	; 0x3e3f6 <PrintHexByte>
			PrintHexByte((absoluteAddr) & 0x00ff);
   3ef6c:	c2 5e       	subi	r28, 0xE2	; 226
   3ef6e:	de 4f       	sbci	r29, 0xFE	; 254
   3ef70:	88 81       	ld	r24, Y
   3ef72:	ce 51       	subi	r28, 0x1E	; 30
   3ef74:	d1 40       	sbci	r29, 0x01	; 1
   3ef76:	0f 94 fb f1 	call	0x3e3f6	; 0x3e3f6 <PrintHexByte>
	#else
		stringPointer	=	pgm_read_word_near(&(gInterruptNameTable[vectorIndex]));
	#endif
		PrintFromPROGMEM((char *)stringPointer, 0);
	#endif
		PrintNewLine();
   3ef7a:	0f 94 e5 f1 	call	0x3e3ca	; 0x3e3ca <PrintNewLine>
	vectorIndex		=	0;
	PrintFromPROGMEMln(gTextMsg_CPU_Name, 0);
	PrintFromPROGMEMln(gTextMsg_VECTOR_HEADER, 0);
	//					 V#   ADDR   op code
	//					  1 - 0000 = C3 BB 00 00 rjmp 03BB >000776 RESET
	while (vectorIndex < kInterruptVectorCount)
   3ef7e:	ce 5d       	subi	r28, 0xDE	; 222
   3ef80:	de 4f       	sbci	r29, 0xFE	; 254
   3ef82:	48 81       	ld	r20, Y
   3ef84:	59 81       	ldd	r21, Y+1	; 0x01
   3ef86:	c2 52       	subi	r28, 0x22	; 34
   3ef88:	d1 40       	sbci	r29, 0x01	; 1
   3ef8a:	49 33       	cpi	r20, 0x39	; 57
   3ef8c:	51 05       	cpc	r21, r1
   3ef8e:	09 f0       	breq	.+2      	; 0x3ef92 <main+0x9b8>
   3ef90:	87 ce       	rjmp	.-754    	; 0x3eca0 <main+0x6c6>
   3ef92:	17 cc       	rjmp	.-2002   	; 0x3e7c2 <main+0x1e8>
				PrintFromPROGMEMln(gTextMsg_HELP_MSG_V, 2);
				VectorDisplay();
				break;

			case 'Y':
				PrintFromPROGMEMln(gTextMsg_HELP_MSG_Y, 2);
   3ef94:	62 e0       	ldi	r22, 0x02	; 2
   3ef96:	86 ee       	ldi	r24, 0xE6	; 230
   3ef98:	90 ee       	ldi	r25, 0xE0	; 224
   3ef9a:	0f 94 eb f1 	call	0x3e3d6	; 0x3e3d6 <PrintFromPROGMEMln>
static void	AVR_PortOutput(void)
{
char	portLetter;
char	getCharFlag;

	PrintFromPROGMEM(gTextMsg_WHAT_PORT, 0);
   3ef9e:	60 e0       	ldi	r22, 0x00	; 0
   3efa0:	81 ed       	ldi	r24, 0xD1	; 209
   3efa2:	91 ee       	ldi	r25, 0xE1	; 225
   3efa4:	0f 94 d1 f1 	call	0x3e3a2	; 0x3e3a2 <PrintFromPROGMEM>

	portLetter	=	recchar();
   3efa8:	0f 94 46 f2 	call	0x3e48c	; 0x3e48c <recchar>
	portLetter	=	portLetter & 0x5f;
   3efac:	08 2f       	mov	r16, r24
   3efae:	0f 75       	andi	r16, 0x5F	; 95
	sendchar(portLetter);
   3efb0:	80 2f       	mov	r24, r16
   3efb2:	0f 94 b6 f1 	call	0x3e36c	; 0x3e36c <sendchar>
	PrintNewLine();
   3efb6:	0f 94 e5 f1 	call	0x3e3ca	; 0x3e3ca <PrintNewLine>

	if ((portLetter >= 'A') && (portLetter <= 'Z'))
   3efba:	8f eb       	ldi	r24, 0xBF	; 191
   3efbc:	80 0f       	add	r24, r16
   3efbe:	8a 31       	cpi	r24, 0x1A	; 26
   3efc0:	08 f0       	brcs	.+2      	; 0x3efc4 <main+0x9ea>
   3efc2:	de c0       	rjmp	.+444    	; 0x3f180 <main+0xba6>
	{
		getCharFlag	=	true;
		switch(portLetter)
   3efc4:	06 34       	cpi	r16, 0x46	; 70
   3efc6:	09 f4       	brne	.+2      	; 0x3efca <main+0x9f0>
   3efc8:	71 c0       	rjmp	.+226    	; 0x3f0ac <main+0xad2>
   3efca:	98 f4       	brcc	.+38     	; 0x3eff2 <main+0xa18>
   3efcc:	03 34       	cpi	r16, 0x43	; 67
   3efce:	09 f4       	brne	.+2      	; 0x3efd2 <main+0x9f8>
   3efd0:	41 c0       	rjmp	.+130    	; 0x3f054 <main+0xa7a>
   3efd2:	38 f4       	brcc	.+14     	; 0x3efe2 <main+0xa08>
   3efd4:	01 34       	cpi	r16, 0x41	; 65
   3efd6:	19 f1       	breq	.+70     	; 0x3f01e <main+0xa44>
   3efd8:	02 34       	cpi	r16, 0x42	; 66
   3efda:	09 f0       	breq	.+2      	; 0x3efde <main+0xa04>
   3efdc:	cd c0       	rjmp	.+410    	; 0x3f178 <main+0xb9e>
				break;
		#endif

		#ifdef DDRB
			case 'B':
				DDRB	=	0xff;
   3efde:	14 b9       	out	0x04, r17	; 4
   3efe0:	2b c0       	rjmp	.+86     	; 0x3f038 <main+0xa5e>
	PrintNewLine();

	if ((portLetter >= 'A') && (portLetter <= 'Z'))
	{
		getCharFlag	=	true;
		switch(portLetter)
   3efe2:	04 34       	cpi	r16, 0x44	; 68
   3efe4:	09 f4       	brne	.+2      	; 0x3efe8 <main+0xa0e>
   3efe6:	45 c0       	rjmp	.+138    	; 0x3f072 <main+0xa98>
   3efe8:	05 34       	cpi	r16, 0x45	; 69
   3efea:	09 f0       	breq	.+2      	; 0x3efee <main+0xa14>
   3efec:	c5 c0       	rjmp	.+394    	; 0x3f178 <main+0xb9e>
				break;
		#endif

		#ifdef DDRE
			case 'E':
				DDRE	=	0xff;
   3efee:	1d b9       	out	0x0d, r17	; 13
   3eff0:	4f c0       	rjmp	.+158    	; 0x3f090 <main+0xab6>
	PrintNewLine();

	if ((portLetter >= 'A') && (portLetter <= 'Z'))
	{
		getCharFlag	=	true;
		switch(portLetter)
   3eff2:	0a 34       	cpi	r16, 0x4A	; 74
   3eff4:	09 f4       	brne	.+2      	; 0x3eff8 <main+0xa1e>
   3eff6:	89 c0       	rjmp	.+274    	; 0x3f10a <main+0xb30>
   3eff8:	48 f4       	brcc	.+18     	; 0x3f00c <main+0xa32>
   3effa:	07 34       	cpi	r16, 0x47	; 71
   3effc:	09 f4       	brne	.+2      	; 0x3f000 <main+0xa26>
   3effe:	65 c0       	rjmp	.+202    	; 0x3f0ca <main+0xaf0>
   3f000:	08 34       	cpi	r16, 0x48	; 72
   3f002:	09 f0       	breq	.+2      	; 0x3f006 <main+0xa2c>
   3f004:	b9 c0       	rjmp	.+370    	; 0x3f178 <main+0xb9e>
				break;
		#endif

		#ifdef DDRH
			case 'H':
				DDRH	=	0xff;
   3f006:	10 93 01 01 	sts	0x0101, r17	; 0x800101 <__TEXT_REGION_LENGTH__+0x700101>
   3f00a:	6e c0       	rjmp	.+220    	; 0x3f0e8 <main+0xb0e>
	PrintNewLine();

	if ((portLetter >= 'A') && (portLetter <= 'Z'))
	{
		getCharFlag	=	true;
		switch(portLetter)
   3f00c:	0b 34       	cpi	r16, 0x4B	; 75
   3f00e:	09 f4       	brne	.+2      	; 0x3f012 <main+0xa38>
   3f010:	8f c0       	rjmp	.+286    	; 0x3f130 <main+0xb56>
   3f012:	0c 34       	cpi	r16, 0x4C	; 76
   3f014:	09 f0       	breq	.+2      	; 0x3f018 <main+0xa3e>
   3f016:	b0 c0       	rjmp	.+352    	; 0x3f178 <main+0xb9e>
				break;
		#endif

		#ifdef DDRL
			case 'L':
				DDRL	=	0xff;
   3f018:	10 93 0a 01 	sts	0x010A, r17	; 0x80010a <__TEXT_REGION_LENGTH__+0x70010a>
   3f01c:	9c c0       	rjmp	.+312    	; 0x3f156 <main+0xb7c>
		getCharFlag	=	true;
		switch(portLetter)
		{
		#ifdef DDRA
			case 'A':
				DDRA	=	0xff;
   3f01e:	11 b9       	out	0x01, r17	; 1


//************************************************************************
static int	Serial_Available(void)
{
	return(UART_STATUS_REG & (1 << UART_RECEIVE_COMPLETE));	// wait for data
   3f020:	80 91 c0 00 	lds	r24, 0x00C0	; 0x8000c0 <__TEXT_REGION_LENGTH__+0x7000c0>
		switch(portLetter)
		{
		#ifdef DDRA
			case 'A':
				DDRA	=	0xff;
				while (!Serial_Available())
   3f024:	87 fd       	sbrc	r24, 7
   3f026:	88 cd       	rjmp	.-1264   	; 0x3eb38 <main+0x55e>
				{
					PORTA	^=	0xff;
   3f028:	82 b1       	in	r24, 0x02	; 2
   3f02a:	80 95       	com	r24
   3f02c:	82 b9       	out	0x02, r24	; 2
					delay_ms(200);
   3f02e:	88 ec       	ldi	r24, 0xC8	; 200
   3f030:	90 e0       	ldi	r25, 0x00	; 0
   3f032:	0f 94 c2 f1 	call	0x3e384	; 0x3e384 <delay_ms>
   3f036:	f4 cf       	rjmp	.-24     	; 0x3f020 <main+0xa46>


//************************************************************************
static int	Serial_Available(void)
{
	return(UART_STATUS_REG & (1 << UART_RECEIVE_COMPLETE));	// wait for data
   3f038:	80 91 c0 00 	lds	r24, 0x00C0	; 0x8000c0 <__TEXT_REGION_LENGTH__+0x7000c0>
		#endif

		#ifdef DDRB
			case 'B':
				DDRB	=	0xff;
				while (!Serial_Available())
   3f03c:	87 fd       	sbrc	r24, 7
   3f03e:	08 c0       	rjmp	.+16     	; 0x3f050 <main+0xa76>
				{
					PORTB	^=	0xff;
   3f040:	85 b1       	in	r24, 0x05	; 5
   3f042:	80 95       	com	r24
   3f044:	85 b9       	out	0x05, r24	; 5
					delay_ms(200);
   3f046:	88 ec       	ldi	r24, 0xC8	; 200
   3f048:	90 e0       	ldi	r25, 0x00	; 0
   3f04a:	0f 94 c2 f1 	call	0x3e384	; 0x3e384 <delay_ms>
   3f04e:	f4 cf       	rjmp	.-24     	; 0x3f038 <main+0xa5e>
				}
				PORTB	=	0;
   3f050:	15 b8       	out	0x05, r1	; 5
   3f052:	73 cd       	rjmp	.-1306   	; 0x3eb3a <main+0x560>
				break;
		#endif

		#ifdef DDRC
			case 'C':
				DDRC	=	0xff;
   3f054:	17 b9       	out	0x07, r17	; 7


//************************************************************************
static int	Serial_Available(void)
{
	return(UART_STATUS_REG & (1 << UART_RECEIVE_COMPLETE));	// wait for data
   3f056:	80 91 c0 00 	lds	r24, 0x00C0	; 0x8000c0 <__TEXT_REGION_LENGTH__+0x7000c0>
		#endif

		#ifdef DDRC
			case 'C':
				DDRC	=	0xff;
				while (!Serial_Available())
   3f05a:	87 fd       	sbrc	r24, 7
   3f05c:	08 c0       	rjmp	.+16     	; 0x3f06e <main+0xa94>
				{
					PORTC	^=	0xff;
   3f05e:	88 b1       	in	r24, 0x08	; 8
   3f060:	80 95       	com	r24
   3f062:	88 b9       	out	0x08, r24	; 8
					delay_ms(200);
   3f064:	88 ec       	ldi	r24, 0xC8	; 200
   3f066:	90 e0       	ldi	r25, 0x00	; 0
   3f068:	0f 94 c2 f1 	call	0x3e384	; 0x3e384 <delay_ms>
   3f06c:	f4 cf       	rjmp	.-24     	; 0x3f056 <main+0xa7c>
				}
				PORTC	=	0;
   3f06e:	18 b8       	out	0x08, r1	; 8
   3f070:	64 cd       	rjmp	.-1336   	; 0x3eb3a <main+0x560>
				break;
		#endif

		#ifdef DDRD
			case 'D':
				DDRD	=	0xff;
   3f072:	1a b9       	out	0x0a, r17	; 10


//************************************************************************
static int	Serial_Available(void)
{
	return(UART_STATUS_REG & (1 << UART_RECEIVE_COMPLETE));	// wait for data
   3f074:	80 91 c0 00 	lds	r24, 0x00C0	; 0x8000c0 <__TEXT_REGION_LENGTH__+0x7000c0>
		#endif

		#ifdef DDRD
			case 'D':
				DDRD	=	0xff;
				while (!Serial_Available())
   3f078:	87 fd       	sbrc	r24, 7
   3f07a:	08 c0       	rjmp	.+16     	; 0x3f08c <main+0xab2>
				{
					PORTD	^=	0xff;
   3f07c:	8b b1       	in	r24, 0x0b	; 11
   3f07e:	80 95       	com	r24
   3f080:	8b b9       	out	0x0b, r24	; 11
					delay_ms(200);
   3f082:	88 ec       	ldi	r24, 0xC8	; 200
   3f084:	90 e0       	ldi	r25, 0x00	; 0
   3f086:	0f 94 c2 f1 	call	0x3e384	; 0x3e384 <delay_ms>
   3f08a:	f4 cf       	rjmp	.-24     	; 0x3f074 <main+0xa9a>
				}
				PORTD	=	0;
   3f08c:	1b b8       	out	0x0b, r1	; 11
   3f08e:	55 cd       	rjmp	.-1366   	; 0x3eb3a <main+0x560>


//************************************************************************
static int	Serial_Available(void)
{
	return(UART_STATUS_REG & (1 << UART_RECEIVE_COMPLETE));	// wait for data
   3f090:	80 91 c0 00 	lds	r24, 0x00C0	; 0x8000c0 <__TEXT_REGION_LENGTH__+0x7000c0>
		#endif

		#ifdef DDRE
			case 'E':
				DDRE	=	0xff;
				while (!Serial_Available())
   3f094:	87 fd       	sbrc	r24, 7
   3f096:	08 c0       	rjmp	.+16     	; 0x3f0a8 <main+0xace>
				{
					PORTE	^=	0xff;
   3f098:	8e b1       	in	r24, 0x0e	; 14
   3f09a:	80 95       	com	r24
   3f09c:	8e b9       	out	0x0e, r24	; 14
					delay_ms(200);
   3f09e:	88 ec       	ldi	r24, 0xC8	; 200
   3f0a0:	90 e0       	ldi	r25, 0x00	; 0
   3f0a2:	0f 94 c2 f1 	call	0x3e384	; 0x3e384 <delay_ms>
   3f0a6:	f4 cf       	rjmp	.-24     	; 0x3f090 <main+0xab6>
				}
				PORTE	=	0;
   3f0a8:	1e b8       	out	0x0e, r1	; 14
   3f0aa:	47 cd       	rjmp	.-1394   	; 0x3eb3a <main+0x560>
				break;
		#endif

		#ifdef DDRF
			case 'F':
				DDRF	=	0xff;
   3f0ac:	10 bb       	out	0x10, r17	; 16


//************************************************************************
static int	Serial_Available(void)
{
	return(UART_STATUS_REG & (1 << UART_RECEIVE_COMPLETE));	// wait for data
   3f0ae:	80 91 c0 00 	lds	r24, 0x00C0	; 0x8000c0 <__TEXT_REGION_LENGTH__+0x7000c0>
		#endif

		#ifdef DDRF
			case 'F':
				DDRF	=	0xff;
				while (!Serial_Available())
   3f0b2:	87 fd       	sbrc	r24, 7
   3f0b4:	08 c0       	rjmp	.+16     	; 0x3f0c6 <main+0xaec>
				{
					PORTF	^=	0xff;
   3f0b6:	81 b3       	in	r24, 0x11	; 17
   3f0b8:	80 95       	com	r24
   3f0ba:	81 bb       	out	0x11, r24	; 17
					delay_ms(200);
   3f0bc:	88 ec       	ldi	r24, 0xC8	; 200
   3f0be:	90 e0       	ldi	r25, 0x00	; 0
   3f0c0:	0f 94 c2 f1 	call	0x3e384	; 0x3e384 <delay_ms>
   3f0c4:	f4 cf       	rjmp	.-24     	; 0x3f0ae <main+0xad4>
				}
				PORTF	=	0;
   3f0c6:	11 ba       	out	0x11, r1	; 17
   3f0c8:	38 cd       	rjmp	.-1424   	; 0x3eb3a <main+0x560>
				break;
		#endif

		#ifdef DDRG
			case 'G':
				DDRG	=	0xff;
   3f0ca:	13 bb       	out	0x13, r17	; 19


//************************************************************************
static int	Serial_Available(void)
{
	return(UART_STATUS_REG & (1 << UART_RECEIVE_COMPLETE));	// wait for data
   3f0cc:	80 91 c0 00 	lds	r24, 0x00C0	; 0x8000c0 <__TEXT_REGION_LENGTH__+0x7000c0>
		#endif

		#ifdef DDRG
			case 'G':
				DDRG	=	0xff;
				while (!Serial_Available())
   3f0d0:	87 fd       	sbrc	r24, 7
   3f0d2:	08 c0       	rjmp	.+16     	; 0x3f0e4 <main+0xb0a>
				{
					PORTG	^=	0xff;
   3f0d4:	84 b3       	in	r24, 0x14	; 20
   3f0d6:	80 95       	com	r24
   3f0d8:	84 bb       	out	0x14, r24	; 20
					delay_ms(200);
   3f0da:	88 ec       	ldi	r24, 0xC8	; 200
   3f0dc:	90 e0       	ldi	r25, 0x00	; 0
   3f0de:	0f 94 c2 f1 	call	0x3e384	; 0x3e384 <delay_ms>
   3f0e2:	f4 cf       	rjmp	.-24     	; 0x3f0cc <main+0xaf2>
				}
				PORTG	=	0;
   3f0e4:	14 ba       	out	0x14, r1	; 20
   3f0e6:	29 cd       	rjmp	.-1454   	; 0x3eb3a <main+0x560>


//************************************************************************
static int	Serial_Available(void)
{
	return(UART_STATUS_REG & (1 << UART_RECEIVE_COMPLETE));	// wait for data
   3f0e8:	80 91 c0 00 	lds	r24, 0x00C0	; 0x8000c0 <__TEXT_REGION_LENGTH__+0x7000c0>
		#endif

		#ifdef DDRH
			case 'H':
				DDRH	=	0xff;
				while (!Serial_Available())
   3f0ec:	87 fd       	sbrc	r24, 7
   3f0ee:	0a c0       	rjmp	.+20     	; 0x3f104 <main+0xb2a>
				{
					PORTH	^=	0xff;
   3f0f0:	80 91 02 01 	lds	r24, 0x0102	; 0x800102 <__TEXT_REGION_LENGTH__+0x700102>
   3f0f4:	80 95       	com	r24
   3f0f6:	80 93 02 01 	sts	0x0102, r24	; 0x800102 <__TEXT_REGION_LENGTH__+0x700102>
					delay_ms(200);
   3f0fa:	88 ec       	ldi	r24, 0xC8	; 200
   3f0fc:	90 e0       	ldi	r25, 0x00	; 0
   3f0fe:	0f 94 c2 f1 	call	0x3e384	; 0x3e384 <delay_ms>
   3f102:	f2 cf       	rjmp	.-28     	; 0x3f0e8 <main+0xb0e>
				}
				PORTH	=	0;
   3f104:	10 92 02 01 	sts	0x0102, r1	; 0x800102 <__TEXT_REGION_LENGTH__+0x700102>
   3f108:	18 cd       	rjmp	.-1488   	; 0x3eb3a <main+0x560>
				break;
		#endif

		#ifdef DDRJ
			case 'J':
				DDRJ	=	0xff;
   3f10a:	10 93 04 01 	sts	0x0104, r17	; 0x800104 <__TEXT_REGION_LENGTH__+0x700104>


//************************************************************************
static int	Serial_Available(void)
{
	return(UART_STATUS_REG & (1 << UART_RECEIVE_COMPLETE));	// wait for data
   3f10e:	80 91 c0 00 	lds	r24, 0x00C0	; 0x8000c0 <__TEXT_REGION_LENGTH__+0x7000c0>
		#endif

		#ifdef DDRJ
			case 'J':
				DDRJ	=	0xff;
				while (!Serial_Available())
   3f112:	87 fd       	sbrc	r24, 7
   3f114:	0a c0       	rjmp	.+20     	; 0x3f12a <main+0xb50>
				{
					PORTJ	^=	0xff;
   3f116:	80 91 05 01 	lds	r24, 0x0105	; 0x800105 <__TEXT_REGION_LENGTH__+0x700105>
   3f11a:	80 95       	com	r24
   3f11c:	80 93 05 01 	sts	0x0105, r24	; 0x800105 <__TEXT_REGION_LENGTH__+0x700105>
					delay_ms(200);
   3f120:	88 ec       	ldi	r24, 0xC8	; 200
   3f122:	90 e0       	ldi	r25, 0x00	; 0
   3f124:	0f 94 c2 f1 	call	0x3e384	; 0x3e384 <delay_ms>
   3f128:	f2 cf       	rjmp	.-28     	; 0x3f10e <main+0xb34>
				}
				PORTJ	=	0;
   3f12a:	10 92 05 01 	sts	0x0105, r1	; 0x800105 <__TEXT_REGION_LENGTH__+0x700105>
   3f12e:	05 cd       	rjmp	.-1526   	; 0x3eb3a <main+0x560>
				break;
		#endif

		#ifdef DDRK
			case 'K':
				DDRK	=	0xff;
   3f130:	10 93 07 01 	sts	0x0107, r17	; 0x800107 <__TEXT_REGION_LENGTH__+0x700107>


//************************************************************************
static int	Serial_Available(void)
{
	return(UART_STATUS_REG & (1 << UART_RECEIVE_COMPLETE));	// wait for data
   3f134:	80 91 c0 00 	lds	r24, 0x00C0	; 0x8000c0 <__TEXT_REGION_LENGTH__+0x7000c0>
		#endif

		#ifdef DDRK
			case 'K':
				DDRK	=	0xff;
				while (!Serial_Available())
   3f138:	87 fd       	sbrc	r24, 7
   3f13a:	0a c0       	rjmp	.+20     	; 0x3f150 <main+0xb76>
				{
					PORTK	^=	0xff;
   3f13c:	80 91 08 01 	lds	r24, 0x0108	; 0x800108 <__TEXT_REGION_LENGTH__+0x700108>
   3f140:	80 95       	com	r24
   3f142:	80 93 08 01 	sts	0x0108, r24	; 0x800108 <__TEXT_REGION_LENGTH__+0x700108>
					delay_ms(200);
   3f146:	88 ec       	ldi	r24, 0xC8	; 200
   3f148:	90 e0       	ldi	r25, 0x00	; 0
   3f14a:	0f 94 c2 f1 	call	0x3e384	; 0x3e384 <delay_ms>
   3f14e:	f2 cf       	rjmp	.-28     	; 0x3f134 <main+0xb5a>
				}
				PORTK	=	0;
   3f150:	10 92 08 01 	sts	0x0108, r1	; 0x800108 <__TEXT_REGION_LENGTH__+0x700108>
   3f154:	f2 cc       	rjmp	.-1564   	; 0x3eb3a <main+0x560>


//************************************************************************
static int	Serial_Available(void)
{
	return(UART_STATUS_REG & (1 << UART_RECEIVE_COMPLETE));	// wait for data
   3f156:	80 91 c0 00 	lds	r24, 0x00C0	; 0x8000c0 <__TEXT_REGION_LENGTH__+0x7000c0>
		#endif

		#ifdef DDRL
			case 'L':
				DDRL	=	0xff;
				while (!Serial_Available())
   3f15a:	87 fd       	sbrc	r24, 7
   3f15c:	0a c0       	rjmp	.+20     	; 0x3f172 <main+0xb98>
				{
					PORTL	^=	0xff;
   3f15e:	80 91 0b 01 	lds	r24, 0x010B	; 0x80010b <__TEXT_REGION_LENGTH__+0x70010b>
   3f162:	80 95       	com	r24
   3f164:	80 93 0b 01 	sts	0x010B, r24	; 0x80010b <__TEXT_REGION_LENGTH__+0x70010b>
					delay_ms(200);
   3f168:	88 ec       	ldi	r24, 0xC8	; 200
   3f16a:	90 e0       	ldi	r25, 0x00	; 0
   3f16c:	0f 94 c2 f1 	call	0x3e384	; 0x3e384 <delay_ms>
   3f170:	f2 cf       	rjmp	.-28     	; 0x3f156 <main+0xb7c>
				}
				PORTL	=	0;
   3f172:	10 92 0b 01 	sts	0x010B, r1	; 0x80010b <__TEXT_REGION_LENGTH__+0x70010b>
   3f176:	e1 cc       	rjmp	.-1598   	; 0x3eb3a <main+0x560>
				break;
		#endif

			default:
				PrintFromPROGMEMln(gTextMsg_PortNotSupported, 0);
   3f178:	60 e0       	ldi	r22, 0x00	; 0
   3f17a:	8e eb       	ldi	r24, 0xBE	; 190
   3f17c:	91 ee       	ldi	r25, 0xE1	; 225
   3f17e:	07 c0       	rjmp	.+14     	; 0x3f18e <main+0xbb4>
			recchar();
		}
	}
	else
	{
		PrintFromPROGMEMln(gTextMsg_MustBeLetter, 0);
   3f180:	60 e0       	ldi	r22, 0x00	; 0
   3f182:	8d ea       	ldi	r24, 0xAD	; 173
   3f184:	91 ee       	ldi	r25, 0xE1	; 225
   3f186:	03 c0       	rjmp	.+6      	; 0x3f18e <main+0xbb4>
				PrintFromPROGMEMln(gTextMsg_HELP_MSG_Y, 2);
				AVR_PortOutput();
				break;
			
			default:
				PrintFromPROGMEMln(gTextMsg_HUH, 0);
   3f188:	60 e0       	ldi	r22, 0x00	; 0
   3f18a:	88 ed       	ldi	r24, 0xD8	; 216
   3f18c:	92 ee       	ldi	r25, 0xE2	; 226
   3f18e:	0f 94 eb f1 	call	0x3e3d6	; 0x3e3d6 <PrintFromPROGMEMln>
   3f192:	17 cb       	rjmp	.-2514   	; 0x3e7c2 <main+0x1e8>
				{
					exPointCntr	=	0;
				}
			#endif

				switch (msgParseState)
   3f194:	83 30       	cpi	r24, 0x03	; 3
   3f196:	49 f1       	breq	.+82     	; 0x3f1ea <main+0xc10>
   3f198:	20 f4       	brcc	.+8      	; 0x3f1a2 <main+0xbc8>
   3f19a:	81 30       	cpi	r24, 0x01	; 1
   3f19c:	99 f0       	breq	.+38     	; 0x3f1c4 <main+0xbea>
   3f19e:	50 f0       	brcs	.+20     	; 0x3f1b4 <main+0xbda>
   3f1a0:	1b c0       	rjmp	.+54     	; 0x3f1d8 <main+0xbfe>
   3f1a2:	85 30       	cpi	r24, 0x05	; 5
   3f1a4:	89 f1       	breq	.+98     	; 0x3f208 <main+0xc2e>
   3f1a6:	38 f1       	brcs	.+78     	; 0x3f1f6 <main+0xc1c>
   3f1a8:	86 30       	cpi	r24, 0x06	; 6
   3f1aa:	09 f0       	breq	.+2      	; 0x3f1ae <main+0xbd4>
   3f1ac:	50 c0       	rjmp	.+160    	; 0x3f24e <main+0xc74>
						break;
					}
				}
				else
				{
					exPointCntr	=	0;
   3f1ae:	a1 2c       	mov	r10, r1
   3f1b0:	b1 2c       	mov	r11, r1
   3f1b2:	4a c0       	rjmp	.+148    	; 0x3f248 <main+0xc6e>
   3f1b4:	a1 2c       	mov	r10, r1
   3f1b6:	b1 2c       	mov	r11, r1
			#endif

				switch (msgParseState)
				{
					case ST_START:
						if ( c == MESSAGE_START )
   3f1b8:	9b 31       	cpi	r25, 0x1B	; 27
   3f1ba:	09 f4       	brne	.+2      	; 0x3f1be <main+0xbe4>
   3f1bc:	6a c2       	rjmp	.+1236   	; 0x3f692 <main+0x10b8>
   3f1be:	40 e0       	ldi	r20, 0x00	; 0
   3f1c0:	50 e0       	ldi	r21, 0x00	; 0
   3f1c2:	98 ca       	rjmp	.-2768   	; 0x3e6f4 <main+0x11a>
						break;
					}
				}
				else
				{
					exPointCntr	=	0;
   3f1c4:	a1 2c       	mov	r10, r1
   3f1c6:	b1 2c       	mov	r11, r1

					case ST_GET_SEQ_NUM:
					#ifdef _FIX_ISSUE_505_
						seqNum			=	c;
						msgParseState	=	ST_MSG_SIZE_1;
						checksum		^=	c;
   3f1c8:	19 27       	eor	r17, r25
						else
						{
							msgParseState	=	ST_START;
						}
					#endif
						break;
   3f1ca:	c6 5d       	subi	r28, 0xD6	; 214
   3f1cc:	de 4f       	sbci	r29, 0xFE	; 254
   3f1ce:	98 83       	st	Y, r25
   3f1d0:	ca 52       	subi	r28, 0x2A	; 42
   3f1d2:	d1 40       	sbci	r29, 0x01	; 1
						break;

					case ST_GET_SEQ_NUM:
					#ifdef _FIX_ISSUE_505_
						seqNum			=	c;
						msgParseState	=	ST_MSG_SIZE_1;
   3f1d4:	82 e0       	ldi	r24, 0x02	; 2
						else
						{
							msgParseState	=	ST_START;
						}
					#endif
						break;
   3f1d6:	f3 cf       	rjmp	.-26     	; 0x3f1be <main+0xbe4>
						break;
					}
				}
				else
				{
					exPointCntr	=	0;
   3f1d8:	a1 2c       	mov	r10, r1
   3f1da:	b1 2c       	mov	r11, r1
						}
					#endif
						break;

					case ST_MSG_SIZE_1:
						msgLength		=	c<<8;
   3f1dc:	29 2f       	mov	r18, r25
   3f1de:	30 e0       	ldi	r19, 0x00	; 0
   3f1e0:	32 2f       	mov	r19, r18
   3f1e2:	22 27       	eor	r18, r18
						msgParseState	=	ST_MSG_SIZE_2;
						checksum		^=	c;
   3f1e4:	19 27       	eor	r17, r25
					#endif
						break;

					case ST_MSG_SIZE_1:
						msgLength		=	c<<8;
						msgParseState	=	ST_MSG_SIZE_2;
   3f1e6:	83 e0       	ldi	r24, 0x03	; 3
						checksum		^=	c;
						break;
   3f1e8:	ea cf       	rjmp	.-44     	; 0x3f1be <main+0xbe4>
						break;
					}
				}
				else
				{
					exPointCntr	=	0;
   3f1ea:	a1 2c       	mov	r10, r1
   3f1ec:	b1 2c       	mov	r11, r1
						msgParseState	=	ST_MSG_SIZE_2;
						checksum		^=	c;
						break;

					case ST_MSG_SIZE_2:
						msgLength		|=	c;
   3f1ee:	29 2b       	or	r18, r25
						msgParseState	=	ST_GET_TOKEN;
						checksum		^=	c;
   3f1f0:	19 27       	eor	r17, r25
						checksum		^=	c;
						break;

					case ST_MSG_SIZE_2:
						msgLength		|=	c;
						msgParseState	=	ST_GET_TOKEN;
   3f1f2:	84 e0       	ldi	r24, 0x04	; 4
						checksum		^=	c;
						break;
   3f1f4:	e4 cf       	rjmp	.-56     	; 0x3f1be <main+0xbe4>
						break;
					}
				}
				else
				{
					exPointCntr	=	0;
   3f1f6:	a1 2c       	mov	r10, r1
   3f1f8:	b1 2c       	mov	r11, r1
						msgParseState	=	ST_GET_TOKEN;
						checksum		^=	c;
						break;

					case ST_GET_TOKEN:
						if ( c == TOKEN )
   3f1fa:	9e 30       	cpi	r25, 0x0E	; 14
   3f1fc:	09 f0       	breq	.+2      	; 0x3f200 <main+0xc26>
   3f1fe:	55 c2       	rjmp	.+1194   	; 0x3f6aa <main+0x10d0>
						{
							msgParseState	=	ST_GET_DATA;
							checksum		^=	c;
   3f200:	19 27       	eor	r17, r25
							ii				=	0;
   3f202:	21 2c       	mov	r2, r1
   3f204:	31 2c       	mov	r3, r1
   3f206:	49 c2       	rjmp	.+1170   	; 0x3f69a <main+0x10c0>
						break;
					}
				}
				else
				{
					exPointCntr	=	0;
   3f208:	a1 2c       	mov	r10, r1
   3f20a:	b1 2c       	mov	r11, r1
							msgParseState	=	ST_START;
						}
						break;

					case ST_GET_DATA:
						msgBuffer[ii++]	=	c;
   3f20c:	a1 01       	movw	r20, r2
   3f20e:	4f 5f       	subi	r20, 0xFF	; 255
   3f210:	5f 4f       	sbci	r21, 0xFF	; 255
   3f212:	e1 e0       	ldi	r30, 0x01	; 1
   3f214:	f0 e0       	ldi	r31, 0x00	; 0
   3f216:	ec 0f       	add	r30, r28
   3f218:	fd 1f       	adc	r31, r29
   3f21a:	e2 0d       	add	r30, r2
   3f21c:	f3 1d       	adc	r31, r3
   3f21e:	90 83       	st	Z, r25
						checksum		^=	c;
   3f220:	19 27       	eor	r17, r25
						if (ii == msgLength )
   3f222:	42 17       	cp	r20, r18
   3f224:	53 07       	cpc	r21, r19
   3f226:	09 f0       	breq	.+2      	; 0x3f22a <main+0xc50>
   3f228:	37 c2       	rjmp	.+1134   	; 0x3f698 <main+0x10be>
   3f22a:	19 01       	movw	r2, r18
						{
							msgParseState	=	ST_GET_CHECK;
   3f22c:	86 e0       	ldi	r24, 0x06	; 6
   3f22e:	c7 cf       	rjmp	.-114    	; 0x3f1be <main+0xbe4>
						break;
					}
				}
				else
				{
					exPointCntr	=	0;
   3f230:	a1 2c       	mov	r10, r1
   3f232:	b1 2c       	mov	r11, r1
				}
			#endif

				switch (msgParseState)
   3f234:	83 30       	cpi	r24, 0x03	; 3
   3f236:	d9 f2       	breq	.-74     	; 0x3f1ee <main+0xc14>
   3f238:	08 f4       	brcc	.+2      	; 0x3f23c <main+0xc62>
   3f23a:	31 c2       	rjmp	.+1122   	; 0x3f69e <main+0x10c4>
   3f23c:	85 30       	cpi	r24, 0x05	; 5
   3f23e:	31 f3       	breq	.-52     	; 0x3f20c <main+0xc32>
   3f240:	08 f4       	brcc	.+2      	; 0x3f244 <main+0xc6a>
   3f242:	33 c2       	rjmp	.+1126   	; 0x3f6aa <main+0x10d0>
   3f244:	86 30       	cpi	r24, 0x06	; 6
   3f246:	29 f4       	brne	.+10     	; 0x3f252 <main+0xc78>
							msgParseState	=	ST_GET_CHECK;
						}
						break;

					case ST_GET_CHECK:
						if ( c == checksum )
   3f248:	91 13       	cpse	r25, r17
   3f24a:	2f c2       	rjmp	.+1118   	; 0x3f6aa <main+0x10d0>
   3f24c:	05 c0       	rjmp	.+10     	; 0x3f258 <main+0xc7e>
						break;
					}
				}
				else
				{
					exPointCntr	=	0;
   3f24e:	a1 2c       	mov	r10, r1
   3f250:	b1 2c       	mov	r11, r1
		{
			/*
			 * Collect received bytes to a complete message
			 */
			msgParseState	=	ST_START;
			while ( msgParseState != ST_PROCESS )
   3f252:	87 30       	cpi	r24, 0x07	; 7
   3f254:	09 f0       	breq	.+2      	; 0x3f258 <main+0xc7e>
   3f256:	b3 cf       	rjmp	.-154    	; 0x3f1be <main+0xbe4>
   3f258:	91 2c       	mov	r9, r1

			/*
			 * Now process the STK500 commands, see Atmel Appnote AVR068
			 */

			switch (msgBuffer[0])
   3f25a:	29 81       	ldd	r18, Y+1	; 0x01
   3f25c:	23 31       	cpi	r18, 0x13	; 19
   3f25e:	09 f4       	brne	.+2      	; 0x3f262 <main+0xc88>
   3f260:	db c0       	rjmp	.+438    	; 0x3f418 <main+0xe3e>
   3f262:	60 f5       	brcc	.+88     	; 0x3f2bc <main+0xce2>
   3f264:	26 30       	cpi	r18, 0x06	; 6
   3f266:	09 f4       	brne	.+2      	; 0x3f26a <main+0xc90>
   3f268:	c5 c0       	rjmp	.+394    	; 0x3f3f4 <main+0xe1a>
   3f26a:	f8 f4       	brcc	.+62     	; 0x3f2aa <main+0xcd0>
   3f26c:	22 30       	cpi	r18, 0x02	; 2
   3f26e:	09 f4       	brne	.+2      	; 0x3f272 <main+0xc98>
   3f270:	68 c1       	rjmp	.+720    	; 0x3f542 <main+0xf68>
   3f272:	23 30       	cpi	r18, 0x03	; 3
   3f274:	09 f4       	brne	.+2      	; 0x3f278 <main+0xc9e>
   3f276:	64 c0       	rjmp	.+200    	; 0x3f340 <main+0xd66>
   3f278:	21 30       	cpi	r18, 0x01	; 1
   3f27a:	09 f0       	breq	.+2      	; 0x3f27e <main+0xca4>
   3f27c:	ad c1       	rjmp	.+858    	; 0x3f5d8 <main+0xffe>
					}
					break;
	#endif
				case CMD_SIGN_ON:
					msgLength		=	11;
					msgBuffer[1] 	=	STATUS_CMD_OK;
   3f27e:	1a 82       	std	Y+2, r1	; 0x02
					msgBuffer[2] 	=	8;
   3f280:	88 e0       	ldi	r24, 0x08	; 8
   3f282:	8b 83       	std	Y+3, r24	; 0x03
					msgBuffer[3] 	=	'A';
   3f284:	81 e4       	ldi	r24, 0x41	; 65
   3f286:	8c 83       	std	Y+4, r24	; 0x04
					msgBuffer[4] 	=	'V';
   3f288:	86 e5       	ldi	r24, 0x56	; 86
   3f28a:	8d 83       	std	Y+5, r24	; 0x05
					msgBuffer[5] 	=	'R';
   3f28c:	82 e5       	ldi	r24, 0x52	; 82
   3f28e:	8e 83       	std	Y+6, r24	; 0x06
					msgBuffer[6] 	=	'I';
   3f290:	89 e4       	ldi	r24, 0x49	; 73
   3f292:	8f 83       	std	Y+7, r24	; 0x07
					msgBuffer[7] 	=	'S';
   3f294:	83 e5       	ldi	r24, 0x53	; 83
   3f296:	88 87       	std	Y+8, r24	; 0x08
					msgBuffer[8] 	=	'P';
   3f298:	80 e5       	ldi	r24, 0x50	; 80
   3f29a:	89 87       	std	Y+9, r24	; 0x09
					msgBuffer[9] 	=	'_';
   3f29c:	8f e5       	ldi	r24, 0x5F	; 95
   3f29e:	8a 87       	std	Y+10, r24	; 0x0a
					msgBuffer[10]	=	'2';
   3f2a0:	82 e3       	ldi	r24, 0x32	; 50
   3f2a2:	8b 87       	std	Y+11, r24	; 0x0b
						}
					}
					break;
	#endif
				case CMD_SIGN_ON:
					msgLength		=	11;
   3f2a4:	0b e0       	ldi	r16, 0x0B	; 11
   3f2a6:	10 e0       	ldi	r17, 0x00	; 0
					msgBuffer[6] 	=	'I';
					msgBuffer[7] 	=	'S';
					msgBuffer[8] 	=	'P';
					msgBuffer[9] 	=	'_';
					msgBuffer[10]	=	'2';
					break;
   3f2a8:	9b c1       	rjmp	.+822    	; 0x3f5e0 <main+0x1006>

			/*
			 * Now process the STK500 commands, see Atmel Appnote AVR068
			 */

			switch (msgBuffer[0])
   3f2aa:	21 31       	cpi	r18, 0x11	; 17
   3f2ac:	09 f4       	brne	.+2      	; 0x3f2b0 <main+0xcd6>
   3f2ae:	55 c0       	rjmp	.+170    	; 0x3f35a <main+0xd80>
   3f2b0:	08 f0       	brcs	.+2      	; 0x3f2b4 <main+0xcda>
   3f2b2:	93 c0       	rjmp	.+294    	; 0x3f3da <main+0xe00>
   3f2b4:	20 31       	cpi	r18, 0x10	; 16
   3f2b6:	09 f4       	brne	.+2      	; 0x3f2ba <main+0xce0>
   3f2b8:	44 c1       	rjmp	.+648    	; 0x3f542 <main+0xf68>
   3f2ba:	8e c1       	rjmp	.+796    	; 0x3f5d8 <main+0xffe>
   3f2bc:	28 31       	cpi	r18, 0x18	; 24
   3f2be:	09 f4       	brne	.+2      	; 0x3f2c2 <main+0xce8>
   3f2c0:	66 c0       	rjmp	.+204    	; 0x3f38e <main+0xdb4>
   3f2c2:	48 f4       	brcc	.+18     	; 0x3f2d6 <main+0xcfc>
   3f2c4:	25 31       	cpi	r18, 0x15	; 21
   3f2c6:	09 f4       	brne	.+2      	; 0x3f2ca <main+0xcf0>
   3f2c8:	a7 c0       	rjmp	.+334    	; 0x3f418 <main+0xe3e>
   3f2ca:	08 f4       	brcc	.+2      	; 0x3f2ce <main+0xcf4>
   3f2cc:	3c c1       	rjmp	.+632    	; 0x3f546 <main+0xf6c>
   3f2ce:	26 31       	cpi	r18, 0x16	; 22
   3f2d0:	09 f4       	brne	.+2      	; 0x3f2d4 <main+0xcfa>
   3f2d2:	39 c1       	rjmp	.+626    	; 0x3f546 <main+0xf6c>
   3f2d4:	81 c1       	rjmp	.+770    	; 0x3f5d8 <main+0xffe>
   3f2d6:	2a 31       	cpi	r18, 0x1A	; 26
   3f2d8:	09 f4       	brne	.+2      	; 0x3f2dc <main+0xd02>
   3f2da:	4d c0       	rjmp	.+154    	; 0x3f376 <main+0xd9c>
   3f2dc:	08 f4       	brcc	.+2      	; 0x3f2e0 <main+0xd06>
   3f2de:	6c c0       	rjmp	.+216    	; 0x3f3b8 <main+0xdde>
   3f2e0:	2b 31       	cpi	r18, 0x1B	; 27
   3f2e2:	09 f4       	brne	.+2      	; 0x3f2e6 <main+0xd0c>
   3f2e4:	3d c0       	rjmp	.+122    	; 0x3f360 <main+0xd86>
   3f2e6:	2d 31       	cpi	r18, 0x1D	; 29
   3f2e8:	09 f0       	breq	.+2      	; 0x3f2ec <main+0xd12>
   3f2ea:	76 c1       	rjmp	.+748    	; 0x3f5d8 <main+0xffe>
				case CMD_SPI_MULTI:
					{
						unsigned char answerByte;
						unsigned char flag=0;

						if ( msgBuffer[4]== 0x30 )
   3f2ec:	9d 81       	ldd	r25, Y+5	; 0x05
   3f2ee:	90 33       	cpi	r25, 0x30	; 48
   3f2f0:	39 f4       	brne	.+14     	; 0x3f300 <main+0xd26>
						{
							unsigned char signatureIndex	=	msgBuffer[6];
   3f2f2:	8f 81       	ldd	r24, Y+7	; 0x07

							if ( signatureIndex == 0 )
   3f2f4:	88 23       	and	r24, r24
   3f2f6:	b1 f0       	breq	.+44     	; 0x3f324 <main+0xd4a>
							{
								answerByte	=	(SIGNATURE_BYTES >> 16) & 0x000000FF;
							}
							else if ( signatureIndex == 1 )
   3f2f8:	81 30       	cpi	r24, 0x01	; 1
   3f2fa:	b1 f0       	breq	.+44     	; 0x3f328 <main+0xd4e>
							{
								answerByte	=	(SIGNATURE_BYTES >> 8) & 0x000000FF;
							}
							else
							{
								answerByte	=	SIGNATURE_BYTES & 0x000000FF;
   3f2fc:	81 e0       	ldi	r24, 0x01	; 1
   3f2fe:	17 c0       	rjmp	.+46     	; 0x3f32e <main+0xd54>
							}
						}
						else if ( msgBuffer[4] & 0x50 )
   3f300:	89 2f       	mov	r24, r25
   3f302:	80 75       	andi	r24, 0x50	; 80
   3f304:	99 f0       	breq	.+38     	; 0x3f32c <main+0xd52>
						//*	Issue 544: 	stk500v2 bootloader doesn't support reading fuses
						//*	I cant find the docs that say what these are supposed to be but this was figured out by trial and error
						//	answerByte	=	boot_lock_fuse_bits_get(GET_LOW_FUSE_BITS);
						//	answerByte	=	boot_lock_fuse_bits_get(GET_HIGH_FUSE_BITS);
						//	answerByte	=	boot_lock_fuse_bits_get(GET_EXTENDED_FUSE_BITS);
							if (msgBuffer[4] == 0x50)
   3f306:	90 35       	cpi	r25, 0x50	; 80
   3f308:	21 f4       	brne	.+8      	; 0x3f312 <main+0xd38>
							{
								answerByte	=	boot_lock_fuse_bits_get(GET_LOW_FUSE_BITS);
   3f30a:	89 e0       	ldi	r24, 0x09	; 9
   3f30c:	e0 e0       	ldi	r30, 0x00	; 0
   3f30e:	f0 e0       	ldi	r31, 0x00	; 0
   3f310:	05 c0       	rjmp	.+10     	; 0x3f31c <main+0xd42>
							}
							else if (msgBuffer[4] == 0x58)
   3f312:	98 35       	cpi	r25, 0x58	; 88
   3f314:	59 f4       	brne	.+22     	; 0x3f32c <main+0xd52>
							{
								answerByte	=	boot_lock_fuse_bits_get(GET_HIGH_FUSE_BITS);
   3f316:	e3 e0       	ldi	r30, 0x03	; 3
   3f318:	f0 e0       	ldi	r31, 0x00	; 0
   3f31a:	89 e0       	ldi	r24, 0x09	; 9
   3f31c:	80 93 57 00 	sts	0x0057, r24	; 0x800057 <__TEXT_REGION_LENGTH__+0x700057>
   3f320:	84 91       	lpm	r24, Z
   3f322:	05 c0       	rjmp	.+10     	; 0x3f32e <main+0xd54>
						{
							unsigned char signatureIndex	=	msgBuffer[6];

							if ( signatureIndex == 0 )
							{
								answerByte	=	(SIGNATURE_BYTES >> 16) & 0x000000FF;
   3f324:	8e e1       	ldi	r24, 0x1E	; 30
   3f326:	03 c0       	rjmp	.+6      	; 0x3f32e <main+0xd54>
							}
							else if ( signatureIndex == 1 )
							{
								answerByte	=	(SIGNATURE_BYTES >> 8) & 0x000000FF;
   3f328:	88 e9       	ldi	r24, 0x98	; 152
   3f32a:	01 c0       	rjmp	.+2      	; 0x3f32e <main+0xd54>
								answerByte	=	0;
							}
						}
						else
						{
							answerByte	=	0; // for all others command are not implemented, return dummy value for AVRDUDE happy <Worapoht>
   3f32c:	80 e0       	ldi	r24, 0x00	; 0
						}
						if ( !flag )
						{
							msgLength		=	7;
							msgBuffer[1]	=	STATUS_CMD_OK;
   3f32e:	1a 82       	std	Y+2, r1	; 0x02
							msgBuffer[2]	=	0;
   3f330:	1b 82       	std	Y+3, r1	; 0x03
							msgBuffer[3]	=	msgBuffer[4];
   3f332:	9c 83       	std	Y+4, r25	; 0x04
							msgBuffer[4]	=	0;
   3f334:	1d 82       	std	Y+5, r1	; 0x05
							msgBuffer[5]	=	answerByte;
   3f336:	8e 83       	std	Y+6, r24	; 0x06
							msgBuffer[6]	=	STATUS_CMD_OK;
   3f338:	1f 82       	std	Y+7, r1	; 0x07
						{
							answerByte	=	0; // for all others command are not implemented, return dummy value for AVRDUDE happy <Worapoht>
						}
						if ( !flag )
						{
							msgLength		=	7;
   3f33a:	07 e0       	ldi	r16, 0x07	; 7
   3f33c:	10 e0       	ldi	r17, 0x00	; 0
   3f33e:	50 c1       	rjmp	.+672    	; 0x3f5e0 <main+0x1006>
   3f340:	ea 81       	ldd	r30, Y+2	; 0x02
   3f342:	e0 59       	subi	r30, 0x90	; 144
   3f344:	e3 30       	cpi	r30, 0x03	; 3
   3f346:	28 f4       	brcc	.+10     	; 0x3f352 <main+0xd78>
   3f348:	f0 e0       	ldi	r31, 0x00	; 0
   3f34a:	e0 50       	subi	r30, 0x00	; 0
   3f34c:	fe 4f       	sbci	r31, 0xFE	; 254
   3f34e:	80 81       	ld	r24, Z
   3f350:	01 c0       	rjmp	.+2      	; 0x3f354 <main+0xd7a>

				case CMD_GET_PARAMETER:
					{
						unsigned char value;

						switch(msgBuffer[1])
   3f352:	80 e0       	ldi	r24, 0x00	; 0
						default:
							value	=	0;
							break;
						}
						msgLength		=	3;
						msgBuffer[1]	=	STATUS_CMD_OK;
   3f354:	1a 82       	std	Y+2, r1	; 0x02
						msgBuffer[2]	=	value;
   3f356:	8b 83       	std	Y+3, r24	; 0x03
   3f358:	3d c0       	rjmp	.+122    	; 0x3f3d4 <main+0xdfa>
					}
					break;

				case CMD_LEAVE_PROGMODE_ISP:
					isLeave	=	1;
   3f35a:	99 24       	eor	r9, r9
   3f35c:	93 94       	inc	r9
   3f35e:	f1 c0       	rjmp	.+482    	; 0x3f542 <main+0xf68>
					msgBuffer[1]	=	STATUS_CMD_OK;
					break;

				case CMD_READ_SIGNATURE_ISP:
					{
						unsigned char signatureIndex	=	msgBuffer[4];
   3f360:	8d 81       	ldd	r24, Y+5	; 0x05
						unsigned char signature;

						if ( signatureIndex == 0 )
   3f362:	88 23       	and	r24, r24
   3f364:	21 f0       	breq	.+8      	; 0x3f36e <main+0xd94>
							signature	=	(SIGNATURE_BYTES >>16) & 0x000000FF;
						else if ( signatureIndex == 1 )
   3f366:	81 30       	cpi	r24, 0x01	; 1
   3f368:	21 f0       	breq	.+8      	; 0x3f372 <main+0xd98>
							signature	=	(SIGNATURE_BYTES >> 8) & 0x000000FF;
						else
							signature	=	SIGNATURE_BYTES & 0x000000FF;
   3f36a:	81 e0       	ldi	r24, 0x01	; 1
   3f36c:	23 c0       	rjmp	.+70     	; 0x3f3b4 <main+0xdda>
					{
						unsigned char signatureIndex	=	msgBuffer[4];
						unsigned char signature;

						if ( signatureIndex == 0 )
							signature	=	(SIGNATURE_BYTES >>16) & 0x000000FF;
   3f36e:	8e e1       	ldi	r24, 0x1E	; 30
   3f370:	21 c0       	rjmp	.+66     	; 0x3f3b4 <main+0xdda>
						else if ( signatureIndex == 1 )
							signature	=	(SIGNATURE_BYTES >> 8) & 0x000000FF;
   3f372:	88 e9       	ldi	r24, 0x98	; 152
   3f374:	1f c0       	rjmp	.+62     	; 0x3f3b4 <main+0xdda>
					}
					break;

				case CMD_READ_LOCK_ISP:
					msgLength		=	4;
					msgBuffer[1]	=	STATUS_CMD_OK;
   3f376:	1a 82       	std	Y+2, r1	; 0x02
					msgBuffer[2]	=	boot_lock_fuse_bits_get( GET_LOCK_BITS );
   3f378:	e1 e0       	ldi	r30, 0x01	; 1
   3f37a:	f0 e0       	ldi	r31, 0x00	; 0
   3f37c:	89 e0       	ldi	r24, 0x09	; 9
   3f37e:	80 93 57 00 	sts	0x0057, r24	; 0x800057 <__TEXT_REGION_LENGTH__+0x700057>
   3f382:	84 91       	lpm	r24, Z
   3f384:	8b 83       	std	Y+3, r24	; 0x03
					msgBuffer[3]	=	STATUS_CMD_OK;
   3f386:	1c 82       	std	Y+4, r1	; 0x04
						msgBuffer[3]	=	STATUS_CMD_OK;
					}
					break;

				case CMD_READ_LOCK_ISP:
					msgLength		=	4;
   3f388:	04 e0       	ldi	r16, 0x04	; 4
   3f38a:	10 e0       	ldi	r17, 0x00	; 0
					msgBuffer[1]	=	STATUS_CMD_OK;
					msgBuffer[2]	=	boot_lock_fuse_bits_get( GET_LOCK_BITS );
					msgBuffer[3]	=	STATUS_CMD_OK;
					break;
   3f38c:	29 c1       	rjmp	.+594    	; 0x3f5e0 <main+0x1006>

				case CMD_READ_FUSE_ISP:
					{
						unsigned char fuseBits;

						if ( msgBuffer[2] == 0x50 )
   3f38e:	8b 81       	ldd	r24, Y+3	; 0x03
   3f390:	80 35       	cpi	r24, 0x50	; 80
   3f392:	51 f4       	brne	.+20     	; 0x3f3a8 <main+0xdce>
						{
							if ( msgBuffer[3] == 0x08 )
   3f394:	8c 81       	ldd	r24, Y+4	; 0x04
   3f396:	88 30       	cpi	r24, 0x08	; 8
   3f398:	19 f4       	brne	.+6      	; 0x3f3a0 <main+0xdc6>
								fuseBits	=	boot_lock_fuse_bits_get( GET_EXTENDED_FUSE_BITS );
   3f39a:	e2 e0       	ldi	r30, 0x02	; 2
   3f39c:	f0 e0       	ldi	r31, 0x00	; 0
   3f39e:	06 c0       	rjmp	.+12     	; 0x3f3ac <main+0xdd2>
							else
								fuseBits	=	boot_lock_fuse_bits_get( GET_LOW_FUSE_BITS );
   3f3a0:	89 e0       	ldi	r24, 0x09	; 9
   3f3a2:	e0 e0       	ldi	r30, 0x00	; 0
   3f3a4:	f0 e0       	ldi	r31, 0x00	; 0
   3f3a6:	03 c0       	rjmp	.+6      	; 0x3f3ae <main+0xdd4>
						}
						else
						{
							fuseBits	=	boot_lock_fuse_bits_get( GET_HIGH_FUSE_BITS );
   3f3a8:	e3 e0       	ldi	r30, 0x03	; 3
   3f3aa:	f0 e0       	ldi	r31, 0x00	; 0
   3f3ac:	89 e0       	ldi	r24, 0x09	; 9
   3f3ae:	80 93 57 00 	sts	0x0057, r24	; 0x800057 <__TEXT_REGION_LENGTH__+0x700057>
   3f3b2:	84 91       	lpm	r24, Z
						}
						msgLength		=	4;
						msgBuffer[1]	=	STATUS_CMD_OK;
   3f3b4:	1a 82       	std	Y+2, r1	; 0x02
   3f3b6:	e6 cf       	rjmp	.-52     	; 0x3f384 <main+0xdaa>
	#ifndef REMOVE_PROGRAM_LOCK_BIT_SUPPORT
				case CMD_PROGRAM_LOCK_ISP:
					{
						unsigned char lockBits	=	msgBuffer[4];

						lockBits	=	(~lockBits) & 0x3C;	// mask BLBxx bits
   3f3b8:	8d 81       	ldd	r24, Y+5	; 0x05
						boot_lock_bits_set(lockBits);		// and program it
   3f3ba:	83 6c       	ori	r24, 0xC3	; 195
   3f3bc:	99 e0       	ldi	r25, 0x09	; 9
   3f3be:	e1 e0       	ldi	r30, 0x01	; 1
   3f3c0:	f0 e0       	ldi	r31, 0x00	; 0
   3f3c2:	08 2e       	mov	r0, r24
   3f3c4:	90 93 57 00 	sts	0x0057, r25	; 0x800057 <__TEXT_REGION_LENGTH__+0x700057>
   3f3c8:	e8 95       	spm
						boot_spm_busy_wait();
   3f3ca:	07 b6       	in	r0, 0x37	; 55
   3f3cc:	00 fc       	sbrc	r0, 0
   3f3ce:	fd cf       	rjmp	.-6      	; 0x3f3ca <main+0xdf0>

						msgLength		=	3;
						msgBuffer[1]	=	STATUS_CMD_OK;
   3f3d0:	1a 82       	std	Y+2, r1	; 0x02
						msgBuffer[2]	=	STATUS_CMD_OK;
   3f3d2:	1b 82       	std	Y+3, r1	; 0x03

						lockBits	=	(~lockBits) & 0x3C;	// mask BLBxx bits
						boot_lock_bits_set(lockBits);		// and program it
						boot_spm_busy_wait();

						msgLength		=	3;
   3f3d4:	03 e0       	ldi	r16, 0x03	; 3
   3f3d6:	10 e0       	ldi	r17, 0x00	; 0
						msgBuffer[1]	=	STATUS_CMD_OK;
						msgBuffer[2]	=	STATUS_CMD_OK;
					}
					break;
   3f3d8:	03 c1       	rjmp	.+518    	; 0x3f5e0 <main+0x1006>
	#endif
				case CMD_CHIP_ERASE_ISP:
					eraseAddress	=	0;
					msgLength		=	2;
				//	msgBuffer[1]	=	STATUS_CMD_OK;
					msgBuffer[1]	=	STATUS_CMD_FAILED;	//*	isue 543, return FAILED instead of OK
   3f3da:	80 ec       	ldi	r24, 0xC0	; 192
   3f3dc:	8a 83       	std	Y+2, r24	; 0x02
					}
					break;
	#endif
				case CMD_CHIP_ERASE_ISP:
					eraseAddress	=	0;
					msgLength		=	2;
   3f3de:	02 e0       	ldi	r16, 0x02	; 2
   3f3e0:	10 e0       	ldi	r17, 0x00	; 0
						msgBuffer[2]	=	STATUS_CMD_OK;
					}
					break;
	#endif
				case CMD_CHIP_ERASE_ISP:
					eraseAddress	=	0;
   3f3e2:	ca 5d       	subi	r28, 0xDA	; 218
   3f3e4:	de 4f       	sbci	r29, 0xFE	; 254
   3f3e6:	18 82       	st	Y, r1
   3f3e8:	19 82       	std	Y+1, r1	; 0x01
   3f3ea:	1a 82       	std	Y+2, r1	; 0x02
   3f3ec:	1b 82       	std	Y+3, r1	; 0x03
   3f3ee:	c6 52       	subi	r28, 0x26	; 38
   3f3f0:	d1 40       	sbci	r29, 0x01	; 1
					msgLength		=	2;
				//	msgBuffer[1]	=	STATUS_CMD_OK;
					msgBuffer[1]	=	STATUS_CMD_FAILED;	//*	isue 543, return FAILED instead of OK
					break;
   3f3f2:	f6 c0       	rjmp	.+492    	; 0x3f5e0 <main+0x1006>

				case CMD_LOAD_ADDRESS:
	#if defined(RAMPZ)
					address	=	( ((address_t)(msgBuffer[1])<<24)|((address_t)(msgBuffer[2])<<16)|((address_t)(msgBuffer[3])<<8)|(msgBuffer[4]) )<<1;
   3f3f4:	8a 81       	ldd	r24, Y+2	; 0x02
   3f3f6:	cb 80       	ldd	r12, Y+3	; 0x03
   3f3f8:	d1 2c       	mov	r13, r1
   3f3fa:	e1 2c       	mov	r14, r1
   3f3fc:	f1 2c       	mov	r15, r1
   3f3fe:	76 01       	movw	r14, r12
   3f400:	dd 24       	eor	r13, r13
   3f402:	cc 24       	eor	r12, r12
   3f404:	f8 2a       	or	r15, r24
   3f406:	8d 81       	ldd	r24, Y+5	; 0x05
   3f408:	c8 2a       	or	r12, r24
   3f40a:	8c 81       	ldd	r24, Y+4	; 0x04
   3f40c:	d8 2a       	or	r13, r24
   3f40e:	cc 0c       	add	r12, r12
   3f410:	dd 1c       	adc	r13, r13
   3f412:	ee 1c       	adc	r14, r14
   3f414:	ff 1c       	adc	r15, r15
   3f416:	95 c0       	rjmp	.+298    	; 0x3f542 <main+0xf68>
					break;

				case CMD_PROGRAM_FLASH_ISP:
				case CMD_PROGRAM_EEPROM_ISP:
					{
						unsigned int	size	=	((msgBuffer[1])<<8) | msgBuffer[2];
   3f418:	0a 81       	ldd	r16, Y+2	; 0x02
   3f41a:	10 e0       	ldi	r17, 0x00	; 0
   3f41c:	10 2f       	mov	r17, r16
   3f41e:	00 27       	eor	r16, r16
   3f420:	8b 81       	ldd	r24, Y+3	; 0x03
   3f422:	08 2b       	or	r16, r24
						unsigned int	data;
						unsigned char	highByte, lowByte;
						address_t		tempaddress	=	address;


						if ( msgBuffer[0] == CMD_PROGRAM_FLASH_ISP )
   3f424:	23 31       	cpi	r18, 0x13	; 19
   3f426:	09 f0       	breq	.+2      	; 0x3f42a <main+0xe50>
   3f428:	5a c0       	rjmp	.+180    	; 0x3f4de <main+0xf04>
						{
							// erase only main section (bootloader protection)
							if (eraseAddress < APP_END )
   3f42a:	ca 5d       	subi	r28, 0xDA	; 218
   3f42c:	de 4f       	sbci	r29, 0xFE	; 254
   3f42e:	28 81       	ld	r18, Y
   3f430:	39 81       	ldd	r19, Y+1	; 0x01
   3f432:	4a 81       	ldd	r20, Y+2	; 0x02
   3f434:	5b 81       	ldd	r21, Y+3	; 0x03
   3f436:	c6 52       	subi	r28, 0x26	; 38
   3f438:	d1 40       	sbci	r29, 0x01	; 1
   3f43a:	21 15       	cp	r18, r1
   3f43c:	80 ec       	ldi	r24, 0xC0	; 192
   3f43e:	38 07       	cpc	r19, r24
   3f440:	83 e0       	ldi	r24, 0x03	; 3
   3f442:	48 07       	cpc	r20, r24
   3f444:	51 05       	cpc	r21, r1
   3f446:	e8 f4       	brcc	.+58     	; 0x3f482 <main+0xea8>
							{
								boot_page_erase(eraseAddress);	// Perform page erase
   3f448:	83 e0       	ldi	r24, 0x03	; 3
   3f44a:	f9 01       	movw	r30, r18
   3f44c:	40 93 5b 00 	sts	0x005B, r20	; 0x80005b <__TEXT_REGION_LENGTH__+0x70005b>
   3f450:	80 93 57 00 	sts	0x0057, r24	; 0x800057 <__TEXT_REGION_LENGTH__+0x700057>
   3f454:	e8 95       	spm
								boot_spm_busy_wait();		// Wait until the memory is erased.
   3f456:	07 b6       	in	r0, 0x37	; 55
   3f458:	00 fc       	sbrc	r0, 0
   3f45a:	fd cf       	rjmp	.-6      	; 0x3f456 <main+0xe7c>
								eraseAddress += SPM_PAGESIZE;	// point to next page to be erase
   3f45c:	ca 5d       	subi	r28, 0xDA	; 218
   3f45e:	de 4f       	sbci	r29, 0xFE	; 254
   3f460:	28 81       	ld	r18, Y
   3f462:	39 81       	ldd	r19, Y+1	; 0x01
   3f464:	4a 81       	ldd	r20, Y+2	; 0x02
   3f466:	5b 81       	ldd	r21, Y+3	; 0x03
   3f468:	c6 52       	subi	r28, 0x26	; 38
   3f46a:	d1 40       	sbci	r29, 0x01	; 1
   3f46c:	3f 5f       	subi	r19, 0xFF	; 255
   3f46e:	4f 4f       	sbci	r20, 0xFF	; 255
   3f470:	5f 4f       	sbci	r21, 0xFF	; 255
   3f472:	ca 5d       	subi	r28, 0xDA	; 218
   3f474:	de 4f       	sbci	r29, 0xFE	; 254
   3f476:	28 83       	st	Y, r18
   3f478:	39 83       	std	Y+1, r19	; 0x01
   3f47a:	4a 83       	std	Y+2, r20	; 0x02
   3f47c:	5b 83       	std	Y+3, r21	; 0x03
   3f47e:	c6 52       	subi	r28, 0x26	; 38
   3f480:	d1 40       	sbci	r29, 0x01	; 1
   3f482:	8b 85       	ldd	r24, Y+11	; 0x0b
						if ( signatureIndex == 0 )
							signature	=	(SIGNATURE_BYTES >>16) & 0x000000FF;
						else if ( signatureIndex == 1 )
							signature	=	(SIGNATURE_BYTES >> 8) & 0x000000FF;
						else
							signature	=	SIGNATURE_BYTES & 0x000000FF;
   3f484:	b7 01       	movw	r22, r14
   3f486:	a6 01       	movw	r20, r12
   3f488:	de 01       	movw	r26, r28
   3f48a:	1b 96       	adiw	r26, 0x0b	; 11
							do {
								lowByte		=	*p++;
								highByte 	=	*p++;

								data		=	(highByte << 8) | lowByte;
								boot_page_fill(address,data);
   3f48c:	21 e0       	ldi	r18, 0x01	; 1
   3f48e:	12 96       	adiw	r26, 0x02	; 2
   3f490:	fd 01       	movw	r30, r26
   3f492:	31 97       	sbiw	r30, 0x01	; 1
							/* Write FLASH */
							do {
								lowByte		=	*p++;
								highByte 	=	*p++;

								data		=	(highByte << 8) | lowByte;
   3f494:	30 81       	ld	r19, Z
   3f496:	90 e0       	ldi	r25, 0x00	; 0
   3f498:	93 2b       	or	r25, r19
								boot_page_fill(address,data);
   3f49a:	0c 01       	movw	r0, r24
   3f49c:	fa 01       	movw	r30, r20
   3f49e:	60 93 5b 00 	sts	0x005B, r22	; 0x80005b <__TEXT_REGION_LENGTH__+0x70005b>
   3f4a2:	20 93 57 00 	sts	0x0057, r18	; 0x800057 <__TEXT_REGION_LENGTH__+0x700057>
   3f4a6:	e8 95       	spm
   3f4a8:	11 24       	eor	r1, r1

								address	=	address + 2;	// Select next word in memory
   3f4aa:	4e 5f       	subi	r20, 0xFE	; 254
   3f4ac:	5f 4f       	sbci	r21, 0xFF	; 255
   3f4ae:	6f 4f       	sbci	r22, 0xFF	; 255
   3f4b0:	7f 4f       	sbci	r23, 0xFF	; 255
								size	-=	2;				// Reduce number of bytes to write by two
   3f4b2:	02 50       	subi	r16, 0x02	; 2
   3f4b4:	11 09       	sbc	r17, r1
							} while (size);					// Loop until all bytes written
   3f4b6:	11 f0       	breq	.+4      	; 0x3f4bc <main+0xee2>
							}

							/* Write FLASH */
							do {
								lowByte		=	*p++;
								highByte 	=	*p++;
   3f4b8:	8c 91       	ld	r24, X
   3f4ba:	e9 cf       	rjmp	.-46     	; 0x3f48e <main+0xeb4>

								address	=	address + 2;	// Select next word in memory
								size	-=	2;				// Reduce number of bytes to write by two
							} while (size);					// Loop until all bytes written

							boot_page_write(tempaddress);
   3f4bc:	85 e0       	ldi	r24, 0x05	; 5
   3f4be:	f6 01       	movw	r30, r12
   3f4c0:	e0 92 5b 00 	sts	0x005B, r14	; 0x80005b <__TEXT_REGION_LENGTH__+0x70005b>
   3f4c4:	80 93 57 00 	sts	0x0057, r24	; 0x800057 <__TEXT_REGION_LENGTH__+0x700057>
   3f4c8:	e8 95       	spm
							boot_spm_busy_wait();
   3f4ca:	07 b6       	in	r0, 0x37	; 55
   3f4cc:	00 fc       	sbrc	r0, 0
   3f4ce:	fd cf       	rjmp	.-6      	; 0x3f4ca <main+0xef0>
							boot_rww_enable();				// Re-enable the RWW section
   3f4d0:	81 e1       	ldi	r24, 0x11	; 17
   3f4d2:	80 93 57 00 	sts	0x0057, r24	; 0x800057 <__TEXT_REGION_LENGTH__+0x700057>
   3f4d6:	e8 95       	spm
								highByte 	=	*p++;

								data		=	(highByte << 8) | lowByte;
								boot_page_fill(address,data);

								address	=	address + 2;	// Select next word in memory
   3f4d8:	6a 01       	movw	r12, r20
   3f4da:	7b 01       	movw	r14, r22
   3f4dc:	32 c0       	rjmp	.+100    	; 0x3f542 <main+0xf68>
							boot_rww_enable();				// Re-enable the RWW section
						}
						else
						{
							//*	issue 543, this should work, It has not been tested.
							uint16_t ii = address >> 1;
   3f4de:	a7 01       	movw	r20, r14
   3f4e0:	96 01       	movw	r18, r12
   3f4e2:	56 95       	lsr	r21
   3f4e4:	47 95       	ror	r20
   3f4e6:	37 95       	ror	r19
   3f4e8:	27 95       	ror	r18
   3f4ea:	ce 5d       	subi	r28, 0xDE	; 222
   3f4ec:	de 4f       	sbci	r29, 0xFE	; 254
   3f4ee:	28 83       	st	Y, r18
   3f4f0:	39 83       	std	Y+1, r19	; 0x01
   3f4f2:	4a 83       	std	Y+2, r20	; 0x02
   3f4f4:	5b 83       	std	Y+3, r21	; 0x03
   3f4f6:	c2 52       	subi	r28, 0x22	; 34
   3f4f8:	d1 40       	sbci	r29, 0x01	; 1
   3f4fa:	3e 01       	movw	r6, r28
   3f4fc:	3b e0       	ldi	r19, 0x0B	; 11
   3f4fe:	63 0e       	add	r6, r19
   3f500:	71 1c       	adc	r7, r1
							/* write EEPROM */
							while (size) {
   3f502:	41 2c       	mov	r4, r1
   3f504:	51 2c       	mov	r5, r1
   3f506:	40 16       	cp	r4, r16
   3f508:	51 06       	cpc	r5, r17
   3f50a:	89 f0       	breq	.+34     	; 0x3f52e <main+0xf54>
								eeprom_write_byte((uint8_t*)ii, *p++);
   3f50c:	d3 01       	movw	r26, r6
   3f50e:	6d 91       	ld	r22, X+
   3f510:	3d 01       	movw	r6, r26
   3f512:	ce 5d       	subi	r28, 0xDE	; 222
   3f514:	de 4f       	sbci	r29, 0xFE	; 254
   3f516:	88 81       	ld	r24, Y
   3f518:	99 81       	ldd	r25, Y+1	; 0x01
   3f51a:	c2 52       	subi	r28, 0x22	; 34
   3f51c:	d1 40       	sbci	r29, 0x01	; 1
   3f51e:	84 0d       	add	r24, r4
   3f520:	95 1d       	adc	r25, r5
   3f522:	0f 94 a9 fb 	call	0x3f752	; 0x3f752 <eeprom_write_byte>
   3f526:	bf ef       	ldi	r27, 0xFF	; 255
   3f528:	4b 1a       	sub	r4, r27
   3f52a:	5b 0a       	sbc	r5, r27
   3f52c:	ec cf       	rjmp	.-40     	; 0x3f506 <main+0xf2c>
   3f52e:	61 2c       	mov	r6, r1
   3f530:	71 2c       	mov	r7, r1
   3f532:	44 0c       	add	r4, r4
   3f534:	55 1c       	adc	r5, r5
   3f536:	66 1c       	adc	r6, r6
   3f538:	77 1c       	adc	r7, r7
   3f53a:	c4 0c       	add	r12, r4
   3f53c:	d5 1c       	adc	r13, r5
   3f53e:	e6 1c       	adc	r14, r6
   3f540:	f7 1c       	adc	r15, r7
								ii++;
								size--;
							}
						}
						msgLength		=	2;
						msgBuffer[1]	=	STATUS_CMD_OK;
   3f542:	1a 82       	std	Y+2, r1	; 0x02
   3f544:	4b c0       	rjmp	.+150    	; 0x3f5dc <main+0x1002>
					break;

				case CMD_READ_FLASH_ISP:
				case CMD_READ_EEPROM_ISP:
					{
						unsigned int	size	=	((msgBuffer[1])<<8) | msgBuffer[2];
   3f546:	8a 81       	ldd	r24, Y+2	; 0x02
   3f548:	90 e0       	ldi	r25, 0x00	; 0
   3f54a:	98 2f       	mov	r25, r24
   3f54c:	88 27       	eor	r24, r24
   3f54e:	3b 81       	ldd	r19, Y+3	; 0x03
   3f550:	83 2b       	or	r24, r19
						unsigned char	*p		=	msgBuffer+1;
						msgLength				=	size+3;
   3f552:	8c 01       	movw	r16, r24
   3f554:	0d 5f       	subi	r16, 0xFD	; 253
   3f556:	1f 4f       	sbci	r17, 0xFF	; 255

						*p++	=	STATUS_CMD_OK;
   3f558:	1a 82       	std	Y+2, r1	; 0x02
						if (msgBuffer[0] == CMD_READ_FLASH_ISP )
   3f55a:	24 31       	cpi	r18, 0x14	; 20
   3f55c:	99 f4       	brne	.+38     	; 0x3f584 <main+0xfaa>
   3f55e:	de 01       	movw	r26, r28
   3f560:	13 96       	adiw	r26, 0x03	; 3

							// Read FLASH
							do {
						//#if defined(RAMPZ)
						#if (FLASHEND > 0x10000)
								data	=	pgm_read_word_far(address);
   3f562:	eb be       	out	0x3b, r14	; 59
   3f564:	f6 01       	movw	r30, r12
   3f566:	27 91       	elpm	r18, Z+
   3f568:	36 91       	elpm	r19, Z
						#else
								data	=	pgm_read_word_near(address);
						#endif
								*p++	=	(unsigned char)data;		//LSB
   3f56a:	2c 93       	st	X, r18
   3f56c:	12 96       	adiw	r26, 0x02	; 2
   3f56e:	fd 01       	movw	r30, r26
   3f570:	31 97       	sbiw	r30, 0x01	; 1
								*p++	=	(unsigned char)(data >> 8);	//MSB
   3f572:	30 83       	st	Z, r19
								address	+=	2;							// Select next word in memory
   3f574:	e2 e0       	ldi	r30, 0x02	; 2
   3f576:	ce 0e       	add	r12, r30
   3f578:	d1 1c       	adc	r13, r1
   3f57a:	e1 1c       	adc	r14, r1
   3f57c:	f1 1c       	adc	r15, r1
								size	-=	2;
   3f57e:	02 97       	sbiw	r24, 0x02	; 2
							}while (size);
   3f580:	81 f7       	brne	.-32     	; 0x3f562 <main+0xf88>
   3f582:	28 c0       	rjmp	.+80     	; 0x3f5d4 <main+0xffa>
   3f584:	fe 01       	movw	r30, r28
   3f586:	33 96       	adiw	r30, 0x03	; 3
						unsigned int	size	=	((msgBuffer[1])<<8) | msgBuffer[2];
						unsigned char	*p		=	msgBuffer+1;
						msgLength				=	size+3;

						*p++	=	STATUS_CMD_OK;
						if (msgBuffer[0] == CMD_READ_FLASH_ISP )
   3f588:	9c 01       	movw	r18, r24
   3f58a:	b7 01       	movw	r22, r14
   3f58c:	a6 01       	movw	r20, r12
						}
						else
						{
							/* Read EEPROM */
							do {
								EEARL	=	address;			// Setup EEPROM address
   3f58e:	41 bd       	out	0x21, r20	; 33
								EEARH	=	((address >> 8));
   3f590:	45 2e       	mov	r4, r21
   3f592:	56 2e       	mov	r5, r22
   3f594:	67 2e       	mov	r6, r23
   3f596:	77 24       	eor	r7, r7
   3f598:	42 bc       	out	0x22, r4	; 34
								address++;					// Select next EEPROM byte
   3f59a:	4f 5f       	subi	r20, 0xFF	; 255
   3f59c:	5f 4f       	sbci	r21, 0xFF	; 255
   3f59e:	6f 4f       	sbci	r22, 0xFF	; 255
   3f5a0:	7f 4f       	sbci	r23, 0xFF	; 255
								EECR	|=	(1<<EERE);			// Read EEPROM
   3f5a2:	f8 9a       	sbi	0x1f, 0	; 31
								*p++	=	EEDR;				// Send EEPROM data
   3f5a4:	a0 b5       	in	r26, 0x20	; 32
   3f5a6:	a1 93       	st	Z+, r26
								size--;
   3f5a8:	21 50       	subi	r18, 0x01	; 1
   3f5aa:	31 09       	sbc	r19, r1
							} while (size);
   3f5ac:	81 f7       	brne	.-32     	; 0x3f58e <main+0xfb4>
   3f5ae:	ac 01       	movw	r20, r24
   3f5b0:	41 50       	subi	r20, 0x01	; 1
   3f5b2:	51 09       	sbc	r21, r1
   3f5b4:	60 e0       	ldi	r22, 0x00	; 0
   3f5b6:	70 e0       	ldi	r23, 0x00	; 0
   3f5b8:	4f 5f       	subi	r20, 0xFF	; 255
   3f5ba:	5f 4f       	sbci	r21, 0xFF	; 255
   3f5bc:	6f 4f       	sbci	r22, 0xFF	; 255
   3f5be:	7f 4f       	sbci	r23, 0xFF	; 255
   3f5c0:	c4 0e       	add	r12, r20
   3f5c2:	d5 1e       	adc	r13, r21
   3f5c4:	e6 1e       	adc	r14, r22
   3f5c6:	f7 1e       	adc	r15, r23
   3f5c8:	a3 e0       	ldi	r26, 0x03	; 3
   3f5ca:	b0 e0       	ldi	r27, 0x00	; 0
   3f5cc:	ac 0f       	add	r26, r28
   3f5ce:	bd 1f       	adc	r27, r29
   3f5d0:	a8 0f       	add	r26, r24
   3f5d2:	b9 1f       	adc	r27, r25
						}
						*p++	=	STATUS_CMD_OK;
   3f5d4:	1c 92       	st	X, r1
					}
					break;
   3f5d6:	04 c0       	rjmp	.+8      	; 0x3f5e0 <main+0x1006>

				default:
					msgLength		=	2;
					msgBuffer[1]	=	STATUS_CMD_FAILED;
   3f5d8:	80 ec       	ldi	r24, 0xC0	; 192
   3f5da:	8a 83       	std	Y+2, r24	; 0x02
						*p++	=	STATUS_CMD_OK;
					}
					break;

				default:
					msgLength		=	2;
   3f5dc:	02 e0       	ldi	r16, 0x02	; 2
   3f5de:	10 e0       	ldi	r17, 0x00	; 0
			}

			/*
			 * Now send answer message back
			 */
			sendchar(MESSAGE_START);
   3f5e0:	8b e1       	ldi	r24, 0x1B	; 27
   3f5e2:	0f 94 b6 f1 	call	0x3e36c	; 0x3e36c <sendchar>
			checksum	=	MESSAGE_START^0;

			sendchar(seqNum);
   3f5e6:	c6 5d       	subi	r28, 0xD6	; 214
   3f5e8:	de 4f       	sbci	r29, 0xFE	; 254
   3f5ea:	88 81       	ld	r24, Y
   3f5ec:	ca 52       	subi	r28, 0x2A	; 42
   3f5ee:	d1 40       	sbci	r29, 0x01	; 1
   3f5f0:	0f 94 b6 f1 	call	0x3e36c	; 0x3e36c <sendchar>
			checksum	^=	seqNum;

			c			=	((msgLength>>8)&0xFF);
			sendchar(c);
   3f5f4:	81 2f       	mov	r24, r17
   3f5f6:	0f 94 b6 f1 	call	0x3e36c	; 0x3e36c <sendchar>
			checksum	^=	c;

			c			=	msgLength&0x00FF;
			sendchar(c);
   3f5fa:	80 2f       	mov	r24, r16
   3f5fc:	0f 94 b6 f1 	call	0x3e36c	; 0x3e36c <sendchar>
   3f600:	85 e1       	ldi	r24, 0x15	; 21
   3f602:	c6 5d       	subi	r28, 0xD6	; 214
   3f604:	de 4f       	sbci	r29, 0xFE	; 254
   3f606:	88 80       	ld	r8, Y
   3f608:	ca 52       	subi	r28, 0x2A	; 42
   3f60a:	d1 40       	sbci	r29, 0x01	; 1
   3f60c:	88 26       	eor	r8, r24
   3f60e:	80 26       	eor	r8, r16
			checksum ^= c;

			sendchar(TOKEN);
   3f610:	8e e0       	ldi	r24, 0x0E	; 14
   3f612:	0f 94 b6 f1 	call	0x3e36c	; 0x3e36c <sendchar>
			checksum ^= TOKEN;
   3f616:	81 26       	eor	r8, r17
   3f618:	9e 01       	movw	r18, r28
   3f61a:	2f 5f       	subi	r18, 0xFF	; 255
   3f61c:	3f 4f       	sbci	r19, 0xFF	; 255
   3f61e:	39 01       	movw	r6, r18
   3f620:	02 0f       	add	r16, r18
   3f622:	13 1f       	adc	r17, r19

			p	=	msgBuffer;
			while ( msgLength )
   3f624:	60 16       	cp	r6, r16
   3f626:	71 06       	cpc	r7, r17
   3f628:	41 f0       	breq	.+16     	; 0x3f63a <main+0x1060>
			{
				c	=	*p++;
   3f62a:	d3 01       	movw	r26, r6
   3f62c:	5d 90       	ld	r5, X+
   3f62e:	3d 01       	movw	r6, r26
				sendchar(c);
   3f630:	85 2d       	mov	r24, r5
   3f632:	0f 94 b6 f1 	call	0x3e36c	; 0x3e36c <sendchar>
				checksum ^=c;
   3f636:	85 24       	eor	r8, r5
   3f638:	f5 cf       	rjmp	.-22     	; 0x3f624 <main+0x104a>
   3f63a:	18 2d       	mov	r17, r8
				msgLength--;
			}
			sendchar(checksum);
   3f63c:	88 2d       	mov	r24, r8
   3f63e:	0f 94 b6 f1 	call	0x3e36c	; 0x3e36c <sendchar>
			seqNum++;
   3f642:	c6 5d       	subi	r28, 0xD6	; 214
   3f644:	de 4f       	sbci	r29, 0xFE	; 254
   3f646:	28 81       	ld	r18, Y
   3f648:	ca 52       	subi	r28, 0x2A	; 42
   3f64a:	d1 40       	sbci	r29, 0x01	; 1
   3f64c:	2f 5f       	subi	r18, 0xFF	; 255
   3f64e:	c6 5d       	subi	r28, 0xD6	; 214
   3f650:	de 4f       	sbci	r29, 0xFE	; 254
   3f652:	28 83       	st	Y, r18
   3f654:	ca 52       	subi	r28, 0x2A	; 42
   3f656:	d1 40       	sbci	r29, 0x01	; 1
	
		#ifndef REMOVE_BOOTLOADER_LED
			//*	<MLS>	toggle the LED
			PROGLED_PORT	^=	(1<<PROGLED_PIN);	// active high LED ON
   3f658:	85 b1       	in	r24, 0x05	; 5
   3f65a:	80 58       	subi	r24, 0x80	; 128
   3f65c:	85 b9       	out	0x05, r24	; 5
   3f65e:	40 e0       	ldi	r20, 0x00	; 0
   3f660:	50 e0       	ldi	r21, 0x00	; 0


	if (boot_state==1)
	{
		//*	main loop
		while (!isLeave)
   3f662:	99 20       	and	r9, r9
   3f664:	11 f4       	brne	.+4      	; 0x3f66a <main+0x1090>
   3f666:	0d 94 77 f3 	jmp	0x3e6ee	; 0x3e6ee <main+0x114>
	delay_ms(100);
#endif


#ifndef REMOVE_BOOTLOADER_LED
	PROGLED_DDR		&=	~(1<<PROGLED_PIN);	// set to default
   3f66a:	27 98       	cbi	0x04, 7	; 4
	PROGLED_PORT	&=	~(1<<PROGLED_PIN);	// active low LED OFF
   3f66c:	2f 98       	cbi	0x05, 7	; 5
//	PROGLED_PORT	|=	(1<<PROGLED_PIN);	// active high LED OFf
	delay_ms(100);							// delay after exit
   3f66e:	84 e6       	ldi	r24, 0x64	; 100
   3f670:	90 e0       	ldi	r25, 0x00	; 0
   3f672:	0f 94 c2 f1 	call	0x3e384	; 0x3e384 <delay_ms>
#endif


	asm volatile ("nop");			// wait until port has changed
   3f676:	00 00       	nop

	/*
	 * Now leave bootloader
	 */

	UART_STATUS_REG	&=	0xfd;
   3f678:	80 91 c0 00 	lds	r24, 0x00C0	; 0x8000c0 <__TEXT_REGION_LENGTH__+0x7000c0>
   3f67c:	8d 7f       	andi	r24, 0xFD	; 253
   3f67e:	80 93 c0 00 	sts	0x00C0, r24	; 0x8000c0 <__TEXT_REGION_LENGTH__+0x7000c0>
	boot_rww_enable();				// enable application section
   3f682:	81 e1       	ldi	r24, 0x11	; 17
   3f684:	80 93 57 00 	sts	0x0057, r24	; 0x800057 <__TEXT_REGION_LENGTH__+0x700057>
   3f688:	e8 95       	spm


	asm volatile(
   3f68a:	ee 27       	eor	r30, r30
   3f68c:	ff 27       	eor	r31, r31
   3f68e:	09 94       	ijmp
	 /*
	 * Never return to stop GCC to generate exit return code
	 * Actually we will never reach this point, but the compiler doesn't
	 * understand this
	 */
	for(;;);
   3f690:	ff cf       	rjmp	.-2      	; 0x3f690 <main+0x10b6>
				{
					case ST_START:
						if ( c == MESSAGE_START )
						{
							msgParseState	=	ST_GET_SEQ_NUM;
							checksum		=	MESSAGE_START^0;
   3f692:	1b e1       	ldi	r17, 0x1B	; 27
				switch (msgParseState)
				{
					case ST_START:
						if ( c == MESSAGE_START )
						{
							msgParseState	=	ST_GET_SEQ_NUM;
   3f694:	81 e0       	ldi	r24, 0x01	; 1
   3f696:	93 cd       	rjmp	.-1242   	; 0x3f1be <main+0xbe4>
   3f698:	1a 01       	movw	r2, r20
   3f69a:	85 e0       	ldi	r24, 0x05	; 5
   3f69c:	90 cd       	rjmp	.-1248   	; 0x3f1be <main+0xbe4>
				{
					exPointCntr	=	0;
				}
			#endif

				switch (msgParseState)
   3f69e:	81 30       	cpi	r24, 0x01	; 1
   3f6a0:	09 f4       	brne	.+2      	; 0x3f6a4 <main+0x10ca>
   3f6a2:	92 cd       	rjmp	.-1244   	; 0x3f1c8 <main+0xbee>
   3f6a4:	08 f4       	brcc	.+2      	; 0x3f6a8 <main+0x10ce>
   3f6a6:	8b cd       	rjmp	.-1258   	; 0x3f1be <main+0xbe4>
   3f6a8:	99 cd       	rjmp	.-1230   	; 0x3f1dc <main+0xc02>
							checksum		^=	c;
							ii				=	0;
						}
						else
						{
							msgParseState	=	ST_START;
   3f6aa:	80 e0       	ldi	r24, 0x00	; 0
   3f6ac:	88 cd       	rjmp	.-1264   	; 0x3f1be <main+0xbe4>

0003f6ae <__divmodhi4>:
   3f6ae:	97 fb       	bst	r25, 7
   3f6b0:	07 2e       	mov	r0, r23
   3f6b2:	16 f4       	brtc	.+4      	; 0x3f6b8 <__divmodhi4+0xa>
   3f6b4:	00 94       	com	r0
   3f6b6:	07 d0       	rcall	.+14     	; 0x3f6c6 <__divmodhi4_neg1>
   3f6b8:	77 fd       	sbrc	r23, 7
   3f6ba:	09 d0       	rcall	.+18     	; 0x3f6ce <__divmodhi4_neg2>
   3f6bc:	0f 94 8d fb 	call	0x3f71a	; 0x3f71a <__udivmodhi4>
   3f6c0:	07 fc       	sbrc	r0, 7
   3f6c2:	05 d0       	rcall	.+10     	; 0x3f6ce <__divmodhi4_neg2>
   3f6c4:	3e f4       	brtc	.+14     	; 0x3f6d4 <__divmodhi4_exit>

0003f6c6 <__divmodhi4_neg1>:
   3f6c6:	90 95       	com	r25
   3f6c8:	81 95       	neg	r24
   3f6ca:	9f 4f       	sbci	r25, 0xFF	; 255
   3f6cc:	08 95       	ret

0003f6ce <__divmodhi4_neg2>:
   3f6ce:	70 95       	com	r23
   3f6d0:	61 95       	neg	r22
   3f6d2:	7f 4f       	sbci	r23, 0xFF	; 255

0003f6d4 <__divmodhi4_exit>:
   3f6d4:	08 95       	ret

0003f6d6 <__udivmodsi4>:
   3f6d6:	a1 e2       	ldi	r26, 0x21	; 33
   3f6d8:	1a 2e       	mov	r1, r26
   3f6da:	aa 1b       	sub	r26, r26
   3f6dc:	bb 1b       	sub	r27, r27
   3f6de:	fd 01       	movw	r30, r26
   3f6e0:	0d c0       	rjmp	.+26     	; 0x3f6fc <__udivmodsi4_ep>

0003f6e2 <__udivmodsi4_loop>:
   3f6e2:	aa 1f       	adc	r26, r26
   3f6e4:	bb 1f       	adc	r27, r27
   3f6e6:	ee 1f       	adc	r30, r30
   3f6e8:	ff 1f       	adc	r31, r31
   3f6ea:	a2 17       	cp	r26, r18
   3f6ec:	b3 07       	cpc	r27, r19
   3f6ee:	e4 07       	cpc	r30, r20
   3f6f0:	f5 07       	cpc	r31, r21
   3f6f2:	20 f0       	brcs	.+8      	; 0x3f6fc <__udivmodsi4_ep>
   3f6f4:	a2 1b       	sub	r26, r18
   3f6f6:	b3 0b       	sbc	r27, r19
   3f6f8:	e4 0b       	sbc	r30, r20
   3f6fa:	f5 0b       	sbc	r31, r21

0003f6fc <__udivmodsi4_ep>:
   3f6fc:	66 1f       	adc	r22, r22
   3f6fe:	77 1f       	adc	r23, r23
   3f700:	88 1f       	adc	r24, r24
   3f702:	99 1f       	adc	r25, r25
   3f704:	1a 94       	dec	r1
   3f706:	69 f7       	brne	.-38     	; 0x3f6e2 <__udivmodsi4_loop>
   3f708:	60 95       	com	r22
   3f70a:	70 95       	com	r23
   3f70c:	80 95       	com	r24
   3f70e:	90 95       	com	r25
   3f710:	9b 01       	movw	r18, r22
   3f712:	ac 01       	movw	r20, r24
   3f714:	bd 01       	movw	r22, r26
   3f716:	cf 01       	movw	r24, r30
   3f718:	08 95       	ret

0003f71a <__udivmodhi4>:
   3f71a:	aa 1b       	sub	r26, r26
   3f71c:	bb 1b       	sub	r27, r27
   3f71e:	51 e1       	ldi	r21, 0x11	; 17
   3f720:	07 c0       	rjmp	.+14     	; 0x3f730 <__udivmodhi4_ep>

0003f722 <__udivmodhi4_loop>:
   3f722:	aa 1f       	adc	r26, r26
   3f724:	bb 1f       	adc	r27, r27
   3f726:	a6 17       	cp	r26, r22
   3f728:	b7 07       	cpc	r27, r23
   3f72a:	10 f0       	brcs	.+4      	; 0x3f730 <__udivmodhi4_ep>
   3f72c:	a6 1b       	sub	r26, r22
   3f72e:	b7 0b       	sbc	r27, r23

0003f730 <__udivmodhi4_ep>:
   3f730:	88 1f       	adc	r24, r24
   3f732:	99 1f       	adc	r25, r25
   3f734:	5a 95       	dec	r21
   3f736:	a9 f7       	brne	.-22     	; 0x3f722 <__udivmodhi4_loop>
   3f738:	80 95       	com	r24
   3f73a:	90 95       	com	r25
   3f73c:	bc 01       	movw	r22, r24
   3f73e:	cd 01       	movw	r24, r26
   3f740:	08 95       	ret

0003f742 <eeprom_read_byte>:
   3f742:	f9 99       	sbic	0x1f, 1	; 31
   3f744:	fe cf       	rjmp	.-4      	; 0x3f742 <eeprom_read_byte>
   3f746:	92 bd       	out	0x22, r25	; 34
   3f748:	81 bd       	out	0x21, r24	; 33
   3f74a:	f8 9a       	sbi	0x1f, 0	; 31
   3f74c:	99 27       	eor	r25, r25
   3f74e:	80 b5       	in	r24, 0x20	; 32
   3f750:	08 95       	ret

0003f752 <eeprom_write_byte>:
   3f752:	26 2f       	mov	r18, r22

0003f754 <eeprom_write_r18>:
   3f754:	f9 99       	sbic	0x1f, 1	; 31
   3f756:	fe cf       	rjmp	.-4      	; 0x3f754 <eeprom_write_r18>
   3f758:	1f ba       	out	0x1f, r1	; 31
   3f75a:	92 bd       	out	0x22, r25	; 34
   3f75c:	81 bd       	out	0x21, r24	; 33
   3f75e:	20 bd       	out	0x20, r18	; 32
   3f760:	0f b6       	in	r0, 0x3f	; 63
   3f762:	f8 94       	cli
   3f764:	fa 9a       	sbi	0x1f, 2	; 31
   3f766:	f9 9a       	sbi	0x1f, 1	; 31
   3f768:	0f be       	out	0x3f, r0	; 63
   3f76a:	01 96       	adiw	r24, 0x01	; 1
   3f76c:	08 95       	ret

0003f76e <_exit>:
   3f76e:	f8 94       	cli

0003f770 <__stop_program>:
   3f770:	ff cf       	rjmp	.-2      	; 0x3f770 <__stop_program>
